(dp1
V002281.sz
p2
V\u5149\u8fc5\u79d1\u6280
p3
sV900937.ss
p4
V\u534e\u7535B\u80a1
p5
sV002132.sz
p6
V\u6052\u661f\u79d1\u6280
p7
sV300271.sz
p8
V\u534e\u5b87\u8f6f\u4ef6
p9
sV600489.ss
p10
V\u4e2d\u91d1\u9ec4\u91d1
p11
sV300096.sz
p12
V\u6613\u8054\u4f17
p13
sV600778.ss
p14
V\u53cb\u597d\u96c6\u56e2
p15
sV601000.ss
p16
V\u5510\u5c71\u6e2f
p17
sV000799.sz
p18
V\u9152\u9b3c\u9152
p19
sV600104.ss
p20
V\u4e0a\u6c7d\u96c6\u56e2
p21
sV300253.sz
p22
V\u536b\u5b81\u8f6f\u4ef6
p23
sV002187.sz
p24
V\u5e7f\u767e\u80a1\u4efd
p25
sV300178.sz
p26
V\u817e\u90a6\u56fd\u9645
p27
sV002077.sz
p28
V\u5927\u6e2f\u80a1\u4efd
p29
sV300242.sz
p30
V\u660e\u5bb6\u79d1\u6280
p31
sV002561.sz
p32
V\u5f90\u5bb6\u6c47
p33
sV600976.ss
p34
V\u6b66\u6c49\u5065\u6c11
p35
sV510880.ss
p36
V\u7ea2\u5229ETF
p37
sV000050.sz
p38
V\u6df1\u5929\u9a6cA
p39
sV002276.sz
p40
V\u4e07\u9a6c\u7535\u7f06
p41
sV600997.ss
p42
V\u5f00\u6ee6\u80a1\u4efd
p43
sV000819.sz
p44
V\u5cb3\u9633\u5174\u957f
p45
sV900917.ss
p46
V\u6d77\u6b23B\u80a1
p47
sV600468.ss
p48
V\u767e\u5229\u7535\u6c14
p49
sV002480.sz
p50
V\u65b0\u7b51\u80a1\u4efd
p51
sV300062.sz
p52
V\u4e2d\u80fd\u7535\u6c14
p53
sV601918.ss
p54
V\u56fd\u6295\u65b0\u96c6
p55
sV300308.sz
p56
V\u4e2d\u9645\u88c5\u5907
p57
sV300322.sz
p58
V\u7855\u8d1d\u5fb7
p59
sV600150.ss
p60
V\u4e2d\u56fd\u8239\u8236
p61
sV000688.sz
p62
V\u5efa\u65b0\u77ff\u4e1a
p63
sV000980.sz
p64
V\u91d1\u9a6c\u80a1\u4efd
p65
sV601939.ss
p66
V\u5efa\u8bbe\u94f6\u884c
p67
sV002431.sz
p68
V\u68d5\u6988\u56ed\u6797
p69
sV600353.ss
p70
V\u65ed\u5149\u80a1\u4efd
p71
sV600527.ss
p72
V\u6c5f\u5357\u9ad8\u7ea4
p73
sV900956.ss
p74
V\u4e1c\u8d1dB\u80a1
p75
sV600758.ss
p76
V\u7ea2\u9633\u80fd\u6e90
p77
sV002593.sz
p78
V\u65e5\u4e0a\u96c6\u56e2
p79
sV601188.ss
p80
V\u9f99\u6c5f\u4ea4\u901a
p81
sV600382.ss
p82
V\u5e7f\u4e1c\u660e\u73e0
p83
sV002330.sz
p84
V\u5f97\u5229\u65af
p85
sV600993.ss
p86
V\u9a6c\u5e94\u9f99
p87
sV600309.ss
p88
V\u4e07\u534e\u5316\u5b66
p89
sV002215.sz
p90
V\u8bfa\u666e\u4fe1
p91
sV600145.ss
p92
V\u56fd\u521b\u80fd\u6e90
p93
sV000938.sz
p94
V\u7d2b\u5149\u80a1\u4efd
p95
sV601908.ss
p96
V\u4eac\u8fd0\u901a
p97
sV600717.ss
p98
V\u5929\u6d25\u6e2f
p99
sV600726.ss
p100
V\u534e\u7535\u80fd\u6e90
p101
sV600975.ss
p102
V\u65b0\u4e94\u4e30
p103
sV002124.sz
p104
V\u5929\u90a6\u80a1\u4efd
p105
sV300160.sz
p106
V\u79c0\u5f3a\u80a1\u4efd
p107
sV300340.sz
p108
V\u79d1\u6052\u80a1\u4efd
p109
sV600960.ss
p110
V\u6e24\u6d77\u6d3b\u585e
p111
sV601018.ss
p112
V\u5b81\u6ce2\u6e2f
p113
sV600199.ss
p114
V\u91d1\u79cd\u5b50\u9152
p115
sV600636.ss
p116
V\u4e09\u7231\u5bcc
p117
sV002020.sz
p118
V\u4eac\u65b0\u836f\u4e1a
p119
sV002105.sz
p120
V\u4fe1\u9686\u5b9e\u4e1a
p121
sV300021.sz
p122
V\u5927\u79b9\u8282\u6c34
p123
sV002233.sz
p124
V\u5854\u724c\u96c6\u56e2
p125
sV900945.ss
p126
V\u6d77\u822aB\u80a1
p127
sV300266.sz
p128
V\u5174\u6e90\u8fc7\u6ee4
p129
sV600365.ss
p130
V\u901a\u8461\u80a1\u4efd
p131
sV300305.sz
p132
V\u88d5\u5174\u80a1\u4efd
p133
sV000895.sz
p134
V\u53cc\u6c47\u53d1\u5c55
p135
sV600507.ss
p136
V\u65b9\u5927\u7279\u94a2
p137
sV603001.ss
p138
V\u5965\u5eb7\u56fd\u9645
p139
sV000862.sz
p140
V\u94f6\u661f\u80fd\u6e90
p141
sV601098.ss
p142
V\u4e2d\u5357\u4f20\u5a92
p143
sV002144.sz
p144
V\u5b8f\u8fbe\u9ad8\u79d1
p145
sV600193.ss
p146
V\u521b\u5174\u8d44\u6e90
p147
sV601718.ss
p148
V\u9645\u534e\u96c6\u56e2
p149
sV600170.ss
p150
V\u4e0a\u6d77\u5efa\u5de5
p151
sV000403.sz
p152
V*ST\u751f\u5316
p153
sV300017.sz
p154
V\u7f51\u5bbf\u79d1\u6280
p155
sV000505.sz
p156
V*ST\u73e0\u6c5f
p157
sV002322.sz
p158
V\u7406\u5de5\u76d1\u6d4b
p159
sV000061.sz
p160
V\u519c\u4ea7\u54c1
p161
sV601998.ss
p162
V\u4e2d\u4fe1\u94f6\u884c
p163
sV300032.sz
p164
V\u91d1\u9f99\u673a\u7535
p165
sV002109.sz
p166
V\u5174\u5316\u80a1\u4efd
p167
sV000555.sz
p168
V\u795e\u5dde\u4fe1\u606f
p169
sV002229.sz
p170
V\u9e3f\u535a\u80a1\u4efd
p171
sV600483.ss
p172
V\u798f\u5efa\u5357\u7eba
p173
sV300057.sz
p174
V\u4e07\u987a\u80a1\u4efd
p175
sV601799.ss
p176
V\u661f\u5b87\u80a1\u4efd
p177
sV000918.sz
p178
V\u5609\u51ef\u57ce
p179
sV600093.ss
p180
V\u79be\u5609\u80a1\u4efd
p181
sV002282.sz
p182
V\u535a\u6df1\u5de5\u5177
p183
sV600369.ss
p184
V\u897f\u5357\u8bc1\u5238
p185
sV000611.sz
p186
V\u56db\u6d77\u80a1\u4efd
p187
sV300334.sz
p188
V\u6d25\u819c\u79d1\u6280
p189
sV200028.sz
p190
V\u4e00\u81f4B
p191
sV600725.ss
p192
V\u4e91\u7ef4\u80a1\u4efd
p193
sV002039.sz
p194
V\u9ed4\u6e90\u7535\u529b
p195
sV002695.sz
p196
V\u714c\u4e0a\u714c
p197
sV300176.sz
p198
V\u9e3f\u7279\u7cbe\u5bc6
p199
sV002152.sz
p200
V\u5e7f\u7535\u8fd0\u901a
p201
sV600588.ss
p202
V\u7528\u53cb\u8f6f\u4ef6
p203
sV600216.ss
p204
V\u6d59\u6c5f\u533b\u836f
p205
sV002494.sz
p206
V\u534e\u65af\u80a1\u4efd
p207
sV510070.ss
p208
V\u6c11\u4f01ETF
p209
sV002247.sz
p210
V\u5e1d\u9f99\u65b0\u6750
p211
sV002377.sz
p212
V\u56fd\u521b\u9ad8\u65b0
p213
sV600645.ss
p214
V\u4e2d\u6e90\u534f\u548c
p215
sV000791.sz
p216
V\u7518\u8083\u7535\u6295
p217
sV002484.sz
p218
V\u6c5f\u6d77\u80a1\u4efd
p219
sV000738.sz
p220
V\u4e2d\u822a\u52a8\u63a7
p221
sV002032.sz
p222
V\u82cf\u6cca\u5c14
p223
sV000726.sz
p224
V\u9c81\u6cf0A
p225
sV600811.ss
p226
V\u4e1c\u65b9\u96c6\u56e2
p227
sV600100.ss
p228
V\u540c\u65b9\u80a1\u4efd
p229
sV300346.sz
p230
V\u5357\u5927\u5149\u7535
p231
sV300004.sz
p232
V\u5357\u98ce\u80a1\u4efd
p233
sV300127.sz
p234
V\u94f6\u6cb3\u78c1\u4f53
p235
sV002629.sz
p236
V\u4ec1\u667a\u6cb9\u670d
p237
sV200581.sz
p238
V\u82cf\u5a01\u5b5aB
p239
sV300164.sz
p240
V\u901a\u6e90\u77f3\u6cb9
p241
sV300066.sz
p242
V\u4e09\u5ddd\u80a1\u4efd
p243
sV600208.ss
p244
V\u65b0\u6e56\u4e2d\u5b9d
p245
sV600689.ss
p246
V\u4e0a\u6d77\u4e09\u6bdb
p247
sV002483.sz
p248
V\u6da6\u90a6\u80a1\u4efd
p249
sV300053.sz
p250
V\u6b27\u6bd4\u7279
p251
sV002673.sz
p252
V\u897f\u90e8\u8bc1\u5238
p253
sV600666.ss
p254
V\u897f\u5357\u836f\u4e1a
p255
sV600332.ss
p256
V\u767d\u4e91\u5c71
p257
sV002424.sz
p258
V\u8d35\u5dde\u767e\u7075
p259
sV000833.sz
p260
V\u8d35\u7cd6\u80a1\u4efd
p261
sV900952.ss
p262
V\u9526\u6e2fB\u80a1
p263
sV300076.sz
p264
VGQY\u89c6\u8baf
p265
sV600260.ss
p266
V\u51ef\u4e50\u79d1\u6280
p267
sV002667.sz
p268
V\u978d\u91cd\u80a1\u4efd
p269
sV600791.ss
p270
V\u4eac\u80fd\u7f6e\u4e1a
p271
sV300118.sz
p272
V\u4e1c\u65b9\u65e5\u5347
p273
sV002414.sz
p274
V\u9ad8\u5fb7\u7ea2\u5916
p275
sV600197.ss
p276
V\u4f0a\u529b\u7279
p277
sV000701.sz
p278
V\u53a6\u95e8\u4fe1\u8fbe
p279
sV000795.sz
p280
V\u592a\u539f\u521a\u7389
p281
sV600234.ss
p282
V*ST\u5929\u9f99
p283
sV300037.sz
p284
V\u65b0\u5b99\u90a6
p285
sV600719.ss
p286
V\u5927\u8fde\u70ed\u7535
p287
sV000805.sz
p288
V*ST\u708e\u9ec4
p289
sV600560.ss
p290
V\u91d1\u81ea\u5929\u6b63
p291
sV002586.sz
p292
V\u56f4\u6d77\u80a1\u4efd
p293
sV002630.sz
p294
V\u534e\u897f\u80fd\u6e90
p295
sV002271.sz
p296
V\u4e1c\u65b9\u96e8\u8679
p297
sV000748.sz
p298
V\u957f\u57ce\u4fe1\u606f
p299
sV002548.sz
p300
V\u91d1\u65b0\u519c
p301
sV300203.sz
p302
V\u805a\u5149\u79d1\u6280
p303
sV600439.ss
p304
V\u745e\u8d1d\u5361
p305
sV300273.sz
p306
V\u548c\u4f73\u80a1\u4efd
p307
sV510090.ss
p308
V\u8d23\u4efbETF
p309
sV002536.sz
p310
V\u897f\u6cf5\u80a1\u4efd
p311
sV000024.sz
p312
V\u62db\u5546\u5730\u4ea7
p313
sV000755.sz
p314
V*ST\u4e09\u7ef4
p315
sV002316.sz
p316
V\u952e\u6865\u901a\u8baf
p317
sV510010.ss
p318
V\u6cbb\u7406ETF
p319
sV002304.sz
p320
V\u6d0b\u6cb3\u80a1\u4efd
p321
sV600547.ss
p322
V\u5c71\u4e1c\u9ec4\u91d1
p323
sV002390.sz
p324
V\u4fe1\u90a6\u5236\u836f
p325
sV000544.sz
p326
V\u4e2d\u539f\u73af\u4fdd
p327
sV600838.ss
p328
V\u4e0a\u6d77\u4e5d\u767e
p329
sV000585.sz
p330
V\u4e1c\u5317\u7535\u6c14
p331
sV002294.sz
p332
V\u4fe1\u7acb\u6cf0
p333
sV002209.sz
p334
V\u8fbe\u610f\u9686
p335
sV600721.ss
p336
V\u767e\u82b1\u6751
p337
sV600595.ss
p338
V\u4e2d\u5b5a\u5b9e\u4e1a
p339
sV600558.ss
p340
V\u5927\u897f\u6d0b
p341
sV600010.ss
p342
V\u5305\u94a2\u80a1\u4efd
p343
sV600678.ss
p344
V\u56db\u5ddd\u91d1\u9876
p345
sV002608.sz
p346
V\u821c\u5929\u8239\u8236
p347
sV000407.sz
p348
V\u80dc\u5229\u80a1\u4efd
p349
sV002289.sz
p350
V\u5b87\u987a\u7535\u5b50
p351
sV600320.ss
p352
V\u632f\u534e\u91cd\u5de5
p353
sV000949.sz
p354
V\u65b0\u4e61\u5316\u7ea4
p355
sV600098.ss
p356
V\u5e7f\u5dde\u53d1\u5c55
p357
sV600773.ss
p358
V\u897f\u85cf\u57ce\u6295
p359
sV000722.sz
p360
V\u6e56\u5357\u53d1\u5c55
p361
sV000972.sz
p362
V\u65b0\u4e2d\u57fa
p363
sV603399.ss
p364
V\u65b0\u534e\u9f99
p365
sV600405.ss
p366
V\u52a8\u529b\u6e90
p367
sV002295.sz
p368
V\u7cbe\u827a\u80a1\u4efd
p369
sV300260.sz
p370
V\u65b0\u83b1\u5e94\u6750
p371
sV000718.sz
p372
V\u82cf\u5b81\u73af\u7403
p373
sV600343.ss
p374
V\u822a\u5929\u52a8\u529b
p375
sV200002.sz
p376
V\u4e07\u79d1B
p377
sV002612.sz
p378
V\u6717\u59ff\u80a1\u4efd
p379
sV600023.ss
p380
V\u6d59\u80fd\u7535\u529b
p381
sV002597.sz
p382
V\u91d1\u79be\u5b9e\u4e1a
p383
sV600386.ss
p384
V\u5317\u5df4\u4f20\u5a92
p385
sV600176.ss
p386
V\u4e2d\u56fd\u73bb\u7ea4
p387
sV600500.ss
p388
V\u4e2d\u5316\u56fd\u9645
p389
sV000723.sz
p390
V\u7f8e\u9526\u80fd\u6e90
p391
sV002211.sz
p392
V\u5b8f\u8fbe\u65b0\u6750
p393
sV600858.ss
p394
V\u94f6\u5ea7\u80a1\u4efd
p395
sV002326.sz
p396
V\u6c38\u592a\u79d1\u6280
p397
sV002028.sz
p398
V\u601d\u6e90\u7535\u6c14
p399
sV510680.ss
p400
V\u4e07\u5bb6380
p401
sV002082.sz
p402
V\u680b\u6881\u65b0\u6750
p403
sV200539.sz
p404
V\u7ca4\u7535\u529bB
p405
sV002528.sz
p406
V\u82f1\u98de\u62d3
p407
sV002388.sz
p408
V\u65b0\u4e9a\u5236\u7a0b
p409
sV600693.ss
p410
V\u4e1c\u767e\u96c6\u56e2
p411
sV002004.sz
p412
V\u534e\u90a6\u9896\u6cf0
p413
sV000650.sz
p414
V\u4ec1\u548c\u836f\u4e1a
p415
sV200553.sz
p416
V\u6c99\u9686\u8fbeB
p417
sV600900.ss
p418
V\u957f\u6c5f\u7535\u529b
p419
sV002478.sz
p420
V\u5e38\u5b9d\u80a1\u4efd
p421
sV601888.ss
p422
V\u4e2d\u56fd\u56fd\u65c5
p423
sV002531.sz
p424
V\u5929\u987a\u98ce\u80fd
p425
sV600641.ss
p426
V\u4e07\u4e1a\u4f01\u4e1a
p427
sV002386.sz
p428
V\u5929\u539f\u96c6\u56e2
p429
sV300049.sz
p430
V\u798f\u745e\u80a1\u4efd
p431
sV600655.ss
p432
V\u8c6b\u56ed\u5546\u57ce
p433
sV601933.ss
p434
V\u6c38\u8f89\u8d85\u5e02
p435
sV600027.ss
p436
V\u534e\u7535\u56fd\u9645
p437
sV002465.sz
p438
V\u6d77\u683c\u901a\u4fe1
p439
sV300016.sz
p440
V\u5317\u9646\u836f\u4e1a
p441
sV000506.sz
p442
V\u4e2d\u6da6\u8d44\u6e90
p443
sV002407.sz
p444
V\u591a\u6c1f\u591a
p445
sV000042.sz
p446
V\u4e2d\u6d32\u63a7\u80a1
p447
sV150021.sz
p448
V\u6c47\u5229B
p449
sV600467.ss
p450
V\u597d\u5f53\u5bb6
p451
sV600986.ss
p452
V\u79d1\u8fbe\u80a1\u4efd
p453
sV002479.sz
p454
V\u5bcc\u6625\u73af\u4fdd
p455
sV000066.sz
p456
V\u957f\u57ce\u7535\u8111
p457
sV300070.sz
p458
V\u78a7\u6c34\u6e90
p459
sV600421.ss
p460
V*ST\u56fd\u836f
p461
sV002543.sz
p462
V\u4e07\u548c\u7535\u6c14
p463
sV511010.ss
p464
V\u56fd\u503aETF
p465
sV300351.sz
p466
V\u6c38\u8d35\u7535\u5668
p467
sV000883.sz
p468
V\u6e56\u5317\u80fd\u6e90
p469
sV002488.sz
p470
V\u91d1\u56fa\u80a1\u4efd
p471
sV002268.sz
p472
V\u536b\u58eb\u901a
p473
sV300012.sz
p474
V\u534e\u6d4b\u68c0\u6d4b
p475
sV000711.sz
p476
V\u5929\u4f26\u7f6e\u4e1a
p477
sV600875.ss
p478
V\u4e1c\u65b9\u7535\u6c14
p479
sV002024.sz
p480
V\u82cf\u5b81\u4e91\u5546
p481
sV000538.sz
p482
V\u4e91\u5357\u767d\u836f
p483
sV000900.sz
p484
V\u73b0\u4ee3\u6295\u8d44
p485
sV300194.sz
p486
V\u798f\u5b89\u836f\u4e1a
p487
sV002178.sz
p488
V\u5ef6\u534e\u667a\u80fd
p489
sV002029.sz
p490
V\u4e03\u5339\u72fc
p491
sV002405.sz
p492
V\u56db\u7ef4\u56fe\u65b0
p493
sV600242.ss
p494
V\u4e2d\u660c\u6d77\u8fd0
p495
sV300254.sz
p496
V\u4edf\u6e90\u5236\u836f
p497
sV000815.sz
p498
V\u7f8e\u5229\u7eb8\u4e1a
p499
sV002461.sz
p500
V\u73e0\u6c5f\u5564\u9152
p501
sV002547.sz
p502
V\u6625\u5174\u7cbe\u5de5
p503
sV600676.ss
p504
V\u4ea4\u8fd0\u80a1\u4efd
p505
sV300344.sz
p506
V\u592a\u7a7a\u677f\u4e1a
p507
sV600291.ss
p508
V\u897f\u6c34\u80a1\u4efd
p509
sV600661.ss
p510
V\u65b0\u5357\u6d0b
p511
sV000065.sz
p512
V\u5317\u65b9\u56fd\u9645
p513
sV000860.sz
p514
V\u987a\u946b\u519c\u4e1a
p515
sV159913.sz
p516
V\u6df1\u4ef7\u503c
p517
sV000070.sz
p518
V\u7279\u53d1\u4fe1\u606f
p519
sV601872.ss
p520
V\u62db\u5546\u8f6e\u8239
p521
sV300008.sz
p522
V\u4e0a\u6d77\u4f73\u8c6a
p523
sV000826.sz
p524
V\u6851\u5fb7\u73af\u5883
p525
sV600817.ss
p526
VST\u5b8f\u76db
p527
sV600028.ss
p528
V\u4e2d\u56fd\u77f3\u5316
p529
sV600257.ss
p530
V\u5927\u6e56\u80a1\u4efd
p531
sV000509.sz
p532
V*ST\u534e\u5851
p533
sV002156.sz
p534
V\u901a\u5bcc\u5fae\u7535
p535
sV002567.sz
p536
V\u5510\u4eba\u795e
p537
sV002399.sz
p538
V\u6d77\u666e\u745e
p539
sV300086.sz
p540
V\u5eb7\u829d\u836f\u4e1a
p541
sV000702.sz
p542
V\u6b63\u8679\u79d1\u6280
p543
sV600613.ss
p544
V\u795e\u5947\u5236\u836f
p545
sV600061.ss
p546
V\u4e2d\u7eba\u6295\u8d44
p547
sV000557.sz
p548
V*ST\u5e7f\u590f
p549
sV600082.ss
p550
V\u6d77\u6cf0\u53d1\u5c55
p551
sV002252.sz
p552
V\u4e0a\u6d77\u83b1\u58eb
p553
sV600856.ss
p554
V\u957f\u767e\u96c6\u56e2
p555
sV600336.ss
p556
V\u6fb3\u67ef\u739b
p557
sV600841.ss
p558
V\u4e0a\u67f4\u80a1\u4efd
p559
sV002526.sz
p560
V\u5c71\u4e1c\u77ff\u673a
p561
sV300288.sz
p562
V\u6717\u739b\u4fe1\u606f
p563
sV600821.ss
p564
V\u6d25\u529d\u4e1a
p565
sV600178.ss
p566
V\u4e1c\u5b89\u52a8\u529b
p567
sV002147.sz
p568
V\u65b9\u5706\u652f\u627f
p569
sV002222.sz
p570
V\u798f\u6676\u79d1\u6280
p571
sV000150.sz
p572
V\u5b9c\u534e\u5730\u4ea7
p573
sV000698.sz
p574
V\u6c88\u9633\u5316\u5de5
p575
sV600531.ss
p576
V\u8c6b\u5149\u91d1\u94c5
p577
sV300270.sz
p578
V\u4e2d\u5a01\u7535\u5b50
p579
sV600250.ss
p580
V\u5357\u7eba\u80a1\u4efd
p581
sV002492.sz
p582
V\u6052\u57fa\u8fbe\u946b
p583
sV000821.sz
p584
V\u4eac\u5c71\u8f7b\u673a
p585
sV601588.ss
p586
V\u5317\u8fb0\u5b9e\u4e1a
p587
sV000049.sz
p588
V\u5fb7\u8d5b\u7535\u6c60
p589
sV000567.sz
p590
V\u6d77\u5fb7\u80a1\u4efd
p591
sV002585.sz
p592
V\u53cc\u661f\u65b0\u6750
p593
sV300345.sz
p594
V\u7ea2\u5b87\u65b0\u6750
p595
sV601005.ss
p596
V\u91cd\u5e86\u94a2\u94c1
p597
sV300306.sz
p598
V\u8fdc\u65b9\u5149\u7535
p599
sV002680.sz
p600
V\u9ec4\u6d77\u673a\u68b0
p601
sV600617.ss
p602
V\u8054\u534e\u5408\u7ea4
p603
sV300047.sz
p604
V\u5929\u6e90\u8fea\u79d1
p605
sV002406.sz
p606
V\u8fdc\u4e1c\u4f20\u52a8
p607
sV000055.sz
p608
V\u65b9\u5927\u96c6\u56e2
p609
sV002256.sz
p610
V\u5f69\u8679\u7cbe\u5316
p611
sV300204.sz
p612
V\u8212\u6cf0\u795e
p613
sV002376.sz
p614
V\u65b0\u5317\u6d0b
p615
sV600845.ss
p616
V\u5b9d\u4fe1\u8f6f\u4ef6
p617
sV000823.sz
p618
V\u8d85\u58f0\u7535\u5b50
p619
sV600543.ss
p620
V\u83ab\u9ad8\u80a1\u4efd
p621
sV002143.sz
p622
V\u9ad8\u91d1\u98df\u54c1
p623
sV900921.ss
p624
V\u4e39\u79d1B\u80a1
p625
sV600865.ss
p626
V\u767e\u5927\u96c6\u56e2
p627
sV300189.sz
p628
V\u795e\u519c\u5927\u4e30
p629
sV300082.sz
p630
V\u5965\u514b\u80a1\u4efd
p631
sV002094.sz
p632
V\u9752\u5c9b\u91d1\u738b
p633
sV600271.ss
p634
V\u822a\u5929\u4fe1\u606f
p635
sV000990.sz
p636
V\u8bda\u5fd7\u80a1\u4efd
p637
sV300019.sz
p638
V\u7845\u5b9d\u79d1\u6280
p639
sV600988.ss
p640
V\u8d64\u5cf0\u9ec4\u91d1
p641
sV601311.ss
p642
V\u9a86\u9a7c\u80a1\u4efd
p643
sV002657.sz
p644
V\u4e2d\u79d1\u91d1\u8d22
p645
sV002041.sz
p646
V\u767b\u6d77\u79cd\u4e1a
p647
sV000785.sz
p648
V\u6b66\u6c49\u4e2d\u5546
p649
sV000889.sz
p650
V\u8302\u4e1a\u7269\u6d41
p651
sV600708.ss
p652
V\u6d77\u535a\u80a1\u4efd
p653
sV002267.sz
p654
V\u9655\u5929\u7136\u6c14
p655
sV002428.sz
p656
V\u4e91\u5357\u9517\u4e1a
p657
sV601238.ss
p658
V\u5e7f\u6c7d\u96c6\u56e2
p659
sV000520.sz
p660
V*ST\u51e4\u51f0
p661
sV600992.ss
p662
V\u8d35\u7ef3\u80a1\u4efd
p663
sV002499.sz
p664
V\u79d1\u6797\u73af\u4fdd
p665
sV300144.sz
p666
V\u5b8b\u57ce\u80a1\u4efd
p667
sV600200.ss
p668
V\u6c5f\u82cf\u5434\u4e2d
p669
sV002394.sz
p670
V\u8054\u53d1\u80a1\u4efd
p671
sV002310.sz
p672
V\u4e1c\u65b9\u56ed\u6797
p673
sV600275.ss
p674
V\u6b66\u660c\u9c7c
p675
sV600736.ss
p676
V\u82cf\u5dde\u9ad8\u65b0
p677
sV000673.sz
p678
V\u5f53\u4ee3\u4e1c\u65b9
p679
sV002115.sz
p680
V\u4e09\u7ef4\u901a\u4fe1
p681
sV600860.ss
p682
V\u4eac\u57ce\u80a1\u4efd
p683
sV200056.sz
p684
V*ST\u56fd\u5546B
p685
sV000426.sz
p686
V\u5174\u4e1a\u77ff\u4e1a
p687
sV000801.sz
p688
V\u56db\u5ddd\u4e5d\u6d32
p689
sV002381.sz
p690
V\u53cc\u7bad\u80a1\u4efd
p691
sV600305.ss
p692
V\u6052\u987a\u918b\u4e1a
p693
sV600230.ss
p694
V\u6ca7\u5dde\u5927\u5316
p695
sV002090.sz
p696
V\u91d1\u667a\u79d1\u6280
p697
sV900907.ss
p698
V\u9f0e\u7acbB\u80a1
p699
sV300069.sz
p700
V\u91d1\u5229\u534e\u7535
p701
sV000989.sz
p702
V\u4e5d\u829d\u5802
p703
sV600313.ss
p704
V\u519c\u53d1\u79cd\u4e1a
p705
sV002128.sz
p706
V\u9732\u5929\u7164\u4e1a
p707
sV600297.ss
p708
V\u7f8e\u7f57\u836f\u4e1a
p709
sV600766.ss
p710
V\u56ed\u57ce\u9ec4\u91d1
p711
sV000852.sz
p712
V\u6c5f\u94bb\u80a1\u4efd
p713
sV000910.sz
p714
V\u5927\u4e9a\u79d1\u6280
p715
sV002177.sz
p716
V\u5fa1\u94f6\u80a1\u4efd
p717
sV002515.sz
p718
V\u91d1\u5b57\u706b\u817f
p719
sV000559.sz
p720
V\u4e07\u5411\u94b1\u6f6e
p721
sV300264.sz
p722
V\u4f73\u521b\u89c6\u8baf
p723
sV300283.sz
p724
V\u6e29\u5dde\u5b8f\u4e30
p725
sV002604.sz
p726
V\u9f99\u529b\u751f\u7269
p727
sV510330.ss
p728
V\u534e\u590f300
p729
sV600665.ss
p730
V\u5929\u5730\u6e90
p731
sV002530.sz
p732
V\u4e30\u4e1c\u80a1\u4efd
p733
sV000039.sz
p734
V\u4e2d\u96c6\u96c6\u56e2
p735
sV300043.sz
p736
V\u4e92\u52a8\u5a31\u4e50
p737
sV300314.sz
p738
V\u6234\u7ef4\u533b\u7597
p739
sV000536.sz
p740
V\u534e\u6620\u79d1\u6280
p741
sV600695.ss
p742
V\u5927\u6c5f\u80a1\u4efd
p743
sV600006.ss
p744
V\u4e1c\u98ce\u6c7d\u8f66
p745
sV002360.sz
p746
V\u540c\u5fb7\u5316\u5de5
p747
sV002084.sz
p748
V\u6d77\u9e25\u536b\u6d74
p749
sV600071.ss
p750
V\u51e4\u51f0\u5149\u5b66
p751
sV002623.sz
p752
V\u4e9a\u739b\u987f
p753
sV002522.sz
p754
V\u6d59\u6c5f\u4f17\u6210
p755
sV000976.sz
p756
V\u6625\u6656\u80a1\u4efd
p757
sV300276.sz
p758
V\u4e09\u4e30\u667a\u80fd
p759
sV600169.ss
p760
V\u592a\u539f\u91cd\u5de5
p761
sV600212.ss
p762
V\u6c5f\u6cc9\u5b9e\u4e1a
p763
sV600486.ss
p764
V\u626c\u519c\u5316\u5de5
p765
sV300335.sz
p766
V\u8fea\u68ee\u80a1\u4efd
p767
sV300039.sz
p768
V\u4e0a\u6d77\u51ef\u5b9d
p769
sV600220.ss
p770
V\u6c5f\u82cf\u9633\u5149
p771
sV002045.sz
p772
V\u56fd\u5149\u7535\u5668
p773
sV600289.ss
p774
V\u4ebf\u9633\u4fe1\u901a
p775
sV002600.sz
p776
V\u6c5f\u7c89\u78c1\u6750
p777
sV000988.sz
p778
V\u534e\u5de5\u79d1\u6280
p779
sV001696.sz
p780
V\u5b97\u7533\u52a8\u529b
p781
sV159902.sz
p782
V\u4e2d\u5c0f\u677f
p783
sV000856.sz
p784
V\u5180\u4e1c\u88c5\u5907
p785
sV000830.sz
p786
V\u9c81\u897f\u5316\u5de5
p787
sV184691.sz
p788
V\u57fa\u91d1\u666f\u5b8f
p789
sV600120.ss
p790
V\u6d59\u6c5f\u4e1c\u65b9
p791
sV600057.ss
p792
V\u8c61\u5c7f\u80a1\u4efd
p793
sV601107.ss
p794
V\u56db\u5ddd\u6210\u6e1d
p795
sV002702.sz
p796
V\u6d77\u6b23\u98df\u54c1
p797
sV000430.sz
p798
V\u5f20\u5bb6\u754c
p799
sV002070.sz
p800
V\u4f17\u548c\u80a1\u4efd
p801
sV600137.ss
p802
V\u6d6a\u838e\u80a1\u4efd
p803
sV002258.sz
p804
V\u5229\u5c14\u5316\u5b66
p805
sV002605.sz
p806
V\u59da\u8bb0\u6251\u514b
p807
sV600512.ss
p808
V\u817e\u8fbe\u5efa\u8bbe
p809
sV601388.ss
p810
V\u6021\u7403\u8d44\u6e90
p811
sV601222.ss
p812
V\u6797\u6d0b\u7535\u5b50
p813
sV002225.sz
p814
V\u6fee\u8010\u80a1\u4efd
p815
sV000031.sz
p816
V\u4e2d\u7cae\u5730\u4ea7
p817
sV000887.sz
p818
V\u4e2d\u9f0e\u80a1\u4efd
p819
sV510450.ss
p820
V180\u9ad8ETF
p821
sV300088.sz
p822
V\u957f\u4fe1\u79d1\u6280
p823
sV000825.sz
p824
V\u592a\u94a2\u4e0d\u9508
p825
sV600982.ss
p826
V\u5b81\u6ce2\u70ed\u7535
p827
sV600009.ss
p828
V\u4e0a\u6d77\u673a\u573a
p829
sV300302.sz
p830
V\u540c\u6709\u79d1\u6280
p831
sV603002.ss
p832
V\u5b8f\u660c\u7535\u5b50
p833
sV000010.sz
p834
V\u6df1\u534e\u65b0
p835
sV002688.sz
p836
V\u91d1\u6cb3\u751f\u7269
p837
sV600186.ss
p838
V\u83b2\u82b1\u5473\u7cbe
p839
sV000721.sz
p840
V\u897f\u5b89\u996e\u98df
p841
sV600107.ss
p842
V\u7f8e\u5c14\u96c5
p843
sV601177.ss
p844
V\u676d\u9f7f\u524d\u8fdb
p845
sV600079.ss
p846
V\u4eba\u798f\u533b\u836f
p847
sV000338.sz
p848
V\u6f4d\u67f4\u52a8\u529b
p849
sV002162.sz
p850
V\u65af\u7c73\u514b
p851
sV002074.sz
p852
V\u4e1c\u6e90\u7535\u5668
p853
sV300137.sz
p854
V\u5148\u6cb3\u73af\u4fdd
p855
sV002379.sz
p856
V\u9c81\u4e30\u73af\u4fdd
p857
sV000524.sz
p858
V\u4e1c\u65b9\u5bbe\u9986
p859
sV600385.ss
p860
V*ST\u91d1\u6cf0
p861
sV002221.sz
p862
V\u4e1c\u534e\u80fd\u6e90
p863
sV300119.sz
p864
V\u745e\u666e\u751f\u7269
p865
sV002594.sz
p866
V\u6bd4\u4e9a\u8fea
p867
sV603128.ss
p868
V\u534e\u8d38\u7269\u6d41
p869
sV002471.sz
p870
V\u4e2d\u8d85\u7535\u7f06
p871
sV002069.sz
p872
V\u7350\u5b50\u5c9b
p873
sV600085.ss
p874
V\u540c\u4ec1\u5802
p875
sV000096.sz
p876
V\u5e7f\u805a\u80fd\u6e90
p877
sV000608.sz
p878
V\u9633\u5149\u80a1\u4efd
p879
sV600570.ss
p880
V\u6052\u751f\u7535\u5b50
p881
sV002620.sz
p882
V\u745e\u548c\u80a1\u4efd
p883
sV000908.sz
p884
V\u5929\u4e00\u79d1\u6280
p885
sV000158.sz
p886
V\u5e38\u5c71\u80a1\u4efd
p887
sV600429.ss
p888
V\u4e09\u5143\u80a1\u4efd
p889
sV510220.ss
p890
V\u4e2d\u5c0fETF
p891
sV600535.ss
p892
V\u5929\u58eb\u529b
p893
sV000751.sz
p894
V*ST\u950c\u4e1a
p895
sV002165.sz
p896
V\u7ea2\u5b9d\u4e3d
p897
sV900942.ss
p898
V\u9ec4\u5c71B\u80a1
p899
sV603993.ss
p900
V\u6d1b\u9633\u94bc\u4e1a
p901
sV300151.sz
p902
V\u660c\u7ea2\u79d1\u6280
p903
sV600681.ss
p904
V\u4e07\u9e3f\u96c6\u56e2
p905
sV002299.sz
p906
V\u5723\u519c\u53d1\u5c55
p907
sV900913.ss
p908
V\u8054\u534eB\u80a1
p909
sV600987.ss
p910
V\u822a\u6c11\u80a1\u4efd
p911
sV600133.ss
p912
V\u4e1c\u6e56\u9ad8\u65b0
p913
sV000626.sz
p914
V\u5982\u610f\u96c6\u56e2
p915
sV600750.ss
p916
V\u6c5f\u4e2d\u836f\u4e1a
p917
sV510500.ss
p918
V500ETF
p919
sV000906.sz
p920
V\u7269\u4ea7\u4e2d\u62d3
p921
sV601857.ss
p922
V\u4e2d\u56fd\u77f3\u6cb9
p923
sV300143.sz
p924
V\u661f\u6cb3\u751f\u7269
p925
sV500002.ss
p926
V\u57fa\u91d1\u6cf0\u548c
p927
sV000597.sz
p928
V\u4e1c\u5317\u5236\u836f
p929
sV300095.sz
p930
V\u534e\u4f0d\u80a1\u4efd
p931
sV000637.sz
p932
V\u8302\u5316\u5b9e\u534e
p933
sV002650.sz
p934
V\u52a0\u52a0\u98df\u54c1
p935
sV159905.sz
p936
V\u6df1\u7ea2\u5229
p937
sV002495.sz
p938
V\u4f73\u9686\u80a1\u4efd
p939
sV002445.sz
p940
V\u4e2d\u5357\u91cd\u5de5
p941
sV300278.sz
p942
V\u534e\u660c\u8fbe
p943
sV300333.sz
p944
V\u5146\u65e5\u79d1\u6280
p945
sV600139.ss
p946
V\u897f\u90e8\u8d44\u6e90
p947
sV000616.sz
p948
V\u4ebf\u57ce\u80a1\u4efd
p949
sV300329.sz
p950
V\u6d77\u4f26\u94a2\u7434
p951
sV600550.ss
p952
V\ufe61ST\u5929\u5a01
p953
sV601677.ss
p954
V\u660e\u6cf0\u94dd\u4e1a
p955
sV600409.ss
p956
V\u4e09\u53cb\u5316\u5de5
p957
sV601009.ss
p958
V\u5357\u4eac\u94f6\u884c
p959
sV002088.sz
p960
V\u9c81\u9633\u80a1\u4efd
p961
sV000623.sz
p962
V\u5409\u6797\u6556\u4e1c
p963
sV300171.sz
p964
V\u4e1c\u5bcc\u9f99
p965
sV000968.sz
p966
V\u7164\u6c14\u5316
p967
sV600699.ss
p968
V\u5747\u80dc\u7535\u5b50
p969
sV000981.sz
p970
V\u94f6\u4ebf\u80a1\u4efd
p971
sV600855.ss
p972
V\u822a\u5929\u957f\u5cf0
p973
sV300339.sz
p974
V\u6da6\u548c\u8f6f\u4ef6
p975
sV002111.sz
p976
V\u5a01\u6d77\u5e7f\u6cf0
p977
sV300091.sz
p978
V\u91d1\u901a\u7075
p979
sV002505.sz
p980
V\u5927\u5eb7\u7267\u4e1a
p981
sV300121.sz
p982
V\u9633\u8c37\u534e\u6cf0
p983
sV002475.sz
p984
V\u7acb\u8baf\u7cbe\u5bc6
p985
sV600361.ss
p986
V\u534e\u8054\u7efc\u8d85
p987
sV000062.sz
p988
V\u6df1\u5733\u534e\u5f3a
p989
sV600476.ss
p990
V\u6e58\u90ae\u79d1\u6280
p991
sV002582.sz
p992
V\u597d\u60f3\u4f60
p993
sV000612.sz
p994
V\u7126\u4f5c\u4e07\u65b9
p995
sV600885.ss
p996
V\u5b8f\u53d1\u80a1\u4efd
p997
sV601038.ss
p998
V\u4e00\u62d6\u80a1\u4efd
p999
sV000593.sz
p1000
V\u5927\u901a\u71c3\u6c14
p1001
sV600328.ss
p1002
V\u5170\u592a\u5b9e\u4e1a
p1003
sV600466.ss
p1004
V\u8fea\u5eb7\u836f\u4e1a
p1005
sV002244.sz
p1006
V\u6ee8\u6c5f\u96c6\u56e2
p1007
sV300216.sz
p1008
V\u5343\u5c71\u836f\u673a
p1009
sV161713.sz
p1010
V\u62db\u5546\u4fe1\u7528
p1011
sV000603.sz
p1012
V\u76db\u8fbe\u77ff\u4e1a
p1013
sV300175.sz
p1014
V\u6717\u6e90\u80a1\u4efd
p1015
sV600851.ss
p1016
V\u6d77\u6b23\u80a1\u4efd
p1017
sV900955.ss
p1018
V*ST\u4e5d\u9f99B
p1019
sV000006.sz
p1020
V\u6df1\u632f\u4e1aA
p1021
sV600198.ss
p1022
V\u5927\u5510\u7535\u4fe1
p1023
sV600355.ss
p1024
V\u7cbe\u4f26\u7535\u5b50
p1025
sV300038.sz
p1026
V\u6885\u6cf0\u8bfa
p1027
sV600540.ss
p1028
V\u65b0\u8d5b\u80a1\u4efd
p1029
sV300105.sz
p1030
V\u9f99\u6e90\u6280\u672f
p1031
sV159907.sz
p1032
V\u4e2d\u5c0f300
p1033
sV600796.ss
p1034
V\u94b1\u6c5f\u751f\u5316
p1035
sV300108.sz
p1036
V\u53cc\u9f99\u80a1\u4efd
p1037
sV600182.ss
p1038
VS\u4f73\u901a
p1039
sV000532.sz
p1040
V\u529b\u5408\u80a1\u4efd
p1041
sV600165.ss
p1042
V\u65b0\u65e5\u6052\u529b
p1043
sV600075.ss
p1044
V\u65b0\u7586\u5929\u4e1a
p1045
sV600381.ss
p1046
V*ST\u8d24\u6210
p1047
sV002203.sz
p1048
V\u6d77\u4eae\u80a1\u4efd
p1049
sV600119.ss
p1050
V\u957f\u6c5f\u6295\u8d44
p1051
sV601158.ss
p1052
V\u91cd\u5e86\u6c34\u52a1
p1053
sV300191.sz
p1054
V\u6f5c\u80fd\u6052\u4fe1
p1055
sV600556.ss
p1056
V*ST\u5317\u751f
p1057
sV002305.sz
p1058
V\u5357\u56fd\u7f6e\u4e1a
p1059
sV601880.ss
p1060
V\u5927\u8fde\u6e2f
p1061
sV900951.ss
p1062
V\u5927\u5316B\u80a1
p1063
sV200152.sz
p1064
V\u5c71\u822aB
p1065
sV300148.sz
p1066
V\u5929\u821f\u6587\u5316
p1067
sV000789.sz
p1068
V\u6c5f\u897f\u6c34\u6ce5
p1069
sV000607.sz
p1070
V\u534e\u667a\u63a7\u80a1
p1071
sV600792.ss
p1072
V\u4e91\u7164\u80fd\u6e90
p1073
sV600803.ss
p1074
V\u5a01\u8fdc\u751f\u5316
p1075
sV002011.sz
p1076
V\u76fe\u5b89\u73af\u5883
p1077
sV600868.ss
p1078
V\u6885\u96c1\u5409\u7965
p1079
sV300224.sz
p1080
V\u6b63\u6d77\u78c1\u6750
p1081
sV002353.sz
p1082
V\u6770\u745e\u80a1\u4efd
p1083
sV000036.sz
p1084
V\u534e\u8054\u63a7\u80a1
p1085
sV900903.ss
p1086
V\u5927\u4f17B\u80a1
p1087
sV300101.sz
p1088
V\u56fd\u817e\u7535\u5b50
p1089
sV002551.sz
p1090
V\u5c1a\u8363\u533b\u7597
p1091
sV600327.ss
p1092
V\u5927\u4e1c\u65b9
p1093
sV000400.sz
p1094
V\u8bb8\u7ee7\u7535\u6c14
p1095
sV600774.ss
p1096
V\u6c49\u5546\u96c6\u56e2
p1097
sV002590.sz
p1098
V\u4e07\u5b89\u79d1\u6280
p1099
sV002191.sz
p1100
V\u52b2\u5609\u80a1\u4efd
p1101
sV000014.sz
p1102
V\u6c99\u6cb3\u80a1\u4efd
p1103
sV600825.ss
p1104
V\u65b0\u534e\u4f20\u5a92
p1105
sV601369.ss
p1106
V\u9655\u9f13\u52a8\u529b
p1107
sV600423.ss
p1108
V\u67f3\u5316\u80a1\u4efd
p1109
sV000963.sz
p1110
V\u534e\u4e1c\u533b\u836f
p1111
sV300348.sz
p1112
V\u957f\u4eae\u79d1\u6280
p1113
sV002598.sz
p1114
V\u5c71\u4e1c\u7ae0\u9f13
p1115
sV002126.sz
p1116
V\u94f6\u8f6e\u80a1\u4efd
p1117
sV000868.sz
p1118
V\u5b89\u51ef\u5ba2\u8f66
p1119
sV600880.ss
p1120
V\u535a\u745e\u4f20\u64ad
p1121
sV000521.sz
p1122
V\u7f8e\u83f1\u7535\u5668
p1123
sV900909.ss
p1124
V\u53cc\u94b1B\u80a1
p1125
sV600389.ss
p1126
V\u6c5f\u5c71\u80a1\u4efd
p1127
sV600299.ss
p1128
V\u84dd\u661f\u65b0\u6750
p1129
sV002457.sz
p1130
V\u9752\u9f99\u7ba1\u4e1a
p1131
sV600844.ss
p1132
V\u4e39\u5316\u79d1\u6280
p1133
sV600618.ss
p1134
V\u6c2f\u78b1\u5316\u5de5
p1135
sV002181.sz
p1136
V\u7ca4\u4f20\u5a92
p1137
sV300147.sz
p1138
V\u9999\u96ea\u5236\u836f
p1139
sV002529.sz
p1140
V\u6d77\u6e90\u673a\u68b0
p1141
sV002443.sz
p1142
V\u91d1\u6d32\u7ba1\u9053
p1143
sV000059.sz
p1144
V\u534e\u9526\u80a1\u4efd
p1145
sV300200.sz
p1146
V\u9ad8\u76df\u65b0\u6750
p1147
sV600478.ss
p1148
V\u79d1\u529b\u8fdc
p1149
sV600979.ss
p1150
V\u5e7f\u5b89\u7231\u4f17
p1151
sV600323.ss
p1152
V\u701a\u84dd\u73af\u5883
p1153
sV002273.sz
p1154
V\u6c34\u6676\u5149\u7535
p1155
sV300295.sz
p1156
V\u4e09\u516d\u4e94\u7f51
p1157
sV300237.sz
p1158
V\u7f8e\u6668\u79d1\u6280
p1159
sV000404.sz
p1160
V\u534e\u610f\u538b\u7f29
p1161
sV600459.ss
p1162
V\u8d35\u7814\u94c2\u4e1a
p1163
sV300220.sz
p1164
V\u91d1\u8fd0\u6fc0\u5149
p1165
sV600406.ss
p1166
V\u56fd\u7535\u5357\u745e
p1167
sV600739.ss
p1168
V\u8fbd\u5b81\u6210\u5927
p1169
sV900925.ss
p1170
V\u673a\u7535B\u80a1
p1171
sV000967.sz
p1172
V\u4e0a\u98ce\u9ad8\u79d1
p1173
sV300078.sz
p1174
V\u4e2d\u745e\u601d\u521b
p1175
sV000501.sz
p1176
V\u9102\u6b66\u5546A
p1177
sV600784.ss
p1178
V\u9c81\u94f6\u6295\u8d44
p1179
sV000922.sz
p1180
V\u4f73\u7535\u80a1\u4efd
p1181
sV300201.sz
p1182
V\u6d77\u4f26\u54f2
p1183
sV600020.ss
p1184
V\u4e2d\u539f\u9ad8\u901f
p1185
sV600375.ss
p1186
V\u534e\u83f1\u661f\u9a6c
p1187
sV002195.sz
p1188
V\u6d77\u9686\u8f6f\u4ef6
p1189
sV601116.ss
p1190
V\u4e09\u6c5f\u8d2d\u7269
p1191
sV002163.sz
p1192
V\u4e2d\u822a\u4e09\u946b
p1193
sV600585.ss
p1194
V\u6d77\u87ba\u6c34\u6ce5
p1195
sV600392.ss
p1196
V\u76db\u548c\u8d44\u6e90
p1197
sV002219.sz
p1198
V\u6052\u5eb7\u533b\u7597
p1199
sV600848.ss
p1200
V\u81ea\u4eea\u80a1\u4efd
p1201
sV002460.sz
p1202
V\u8d63\u950b\u9502\u4e1a
p1203
sV600303.ss
p1204
V\u66d9\u5149\u80a1\u4efd
p1205
sV000679.sz
p1206
V\u5927\u8fde\u53cb\u8c0a
p1207
sV600561.ss
p1208
V\u6c5f\u897f\u957f\u8fd0
p1209
sV000420.sz
p1210
V\u5409\u6797\u5316\u7ea4
p1211
sV600623.ss
p1212
V\u53cc\u94b1\u80a1\u4efd
p1213
sV601688.ss
p1214
V\u534e\u6cf0\u8bc1\u5238
p1215
sV000928.sz
p1216
V\u4e2d\u94a2\u5409\u70ad
p1217
sV000553.sz
p1218
V\u6c99\u9686\u8fbeA
p1219
sV002661.sz
p1220
V\u514b\u660e\u9762\u4e1a
p1221
sV002496.sz
p1222
V\u8f89\u4e30\u80a1\u4efd
p1223
sV600601.ss
p1224
V\u65b9\u6b63\u79d1\u6280
p1225
sV002624.sz
p1226
V\u91d1\u78ca\u80a1\u4efd
p1227
sV002155.sz
p1228
V\u8fb0\u5dde\u77ff\u4e1a
p1229
sV200869.sz
p1230
V\u5f20\u88d5B
p1231
sV600398.ss
p1232
V\u51ef\u8bfa\u79d1\u6280
p1233
sV002344.sz
p1234
V\u6d77\u5b81\u76ae\u57ce
p1235
sV000793.sz
p1236
V\u534e\u95fb\u4f20\u5a92
p1237
sV002385.sz
p1238
V\u5927\u5317\u519c
p1239
sV002046.sz
p1240
V\u8f74\u7814\u79d1\u6280
p1241
sV002400.sz
p1242
V\u7701\u5e7f\u80a1\u4efd
p1243
sV300182.sz
p1244
V\u6377\u6210\u80a1\u4efd
p1245
sV900948.ss
p1246
V\u4f0a\u6cf0B\u80a1
p1247
sV002207.sz
p1248
V\u51c6\u6cb9\u80a1\u4efd
p1249
sV600317.ss
p1250
V\u8425\u53e3\u6e2f
p1251
sV600679.ss
p1252
V\u91d1\u5c71\u5f00\u53d1
p1253
sV000416.sz
p1254
V\u6c11\u751f\u6295\u8d44
p1255
sV002122.sz
p1256
V\u5929\u9a6c\u80a1\u4efd
p1257
sV600418.ss
p1258
V\u6c5f\u6dee\u6c7d\u8f66
p1259
sV300352.sz
p1260
V\u5317\u4fe1\u6e90
p1261
sV600743.ss
p1262
V\u534e\u8fdc\u5730\u4ea7
p1263
sV002118.sz
p1264
V\u7d2b\u946b\u836f\u4e1a
p1265
sV600605.ss
p1266
V\u6c47\u901a\u80fd\u6e90
p1267
sV000880.sz
p1268
V\u6f4d\u67f4\u91cd\u673a
p1269
sV002427.sz
p1270
V\u5c24\u592b\u80a1\u4efd
p1271
sV600152.ss
p1272
V\u7ef4\u79d1\u7cbe\u534e
p1273
sV300197.sz
p1274
V\u94c1\u6c49\u751f\u6001
p1275
sV002436.sz
p1276
V\u5174\u68ee\u79d1\u6280
p1277
sV000982.sz
p1278
V\u4e2d\u94f6\u7ed2\u4e1a
p1279
sV002302.sz
p1280
V\u897f\u90e8\u5efa\u8bbe
p1281
sV600101.ss
p1282
V\u660e\u661f\u7535\u529b
p1283
sV500006.ss
p1284
V\u57fa\u91d1\u88d5\u9633
p1285
sV000692.sz
p1286
V\u60e0\u5929\u70ed\u7535
p1287
sV000993.sz
p1288
V\u95fd\u4e1c\u7535\u529b
p1289
sV600859.ss
p1290
V\u738b\u5e9c\u4e95
p1291
sV002703.sz
p1292
V\u6d59\u6c5f\u4e16\u5b9d
p1293
sV300031.sz
p1294
V\u5b9d\u901a\u5e26\u4e1a
p1295
sV300269.sz
p1296
V\u8054\u5efa\u5149\u7535
p1297
sV000502.sz
p1298
V\u7eff\u666f\u63a7\u80a1
p1299
sV002050.sz
p1300
V\u4e09\u82b1\u80a1\u4efd
p1301
sV002019.sz
p1302
V\u946b\u5bcc\u836f\u4e1a
p1303
sV002361.sz
p1304
V\u795e\u5251\u80a1\u4efd
p1305
sV600835.ss
p1306
V\u4e0a\u6d77\u673a\u7535
p1307
sV600662.ss
p1308
V\u5f3a\u751f\u63a7\u80a1
p1309
sV300239.sz
p1310
V\u4e1c\u5b9d\u751f\u7269
p1311
sV600640.ss
p1312
V\u53f7\u767e\u63a7\u80a1
p1313
sV002335.sz
p1314
V\u79d1\u534e\u6052\u76db
p1315
sV300072.sz
p1316
V\u4e09\u805a\u73af\u4fdd
p1317
sV600536.ss
p1318
V\u4e2d\u56fd\u8f6f\u4ef6
p1319
sV002306.sz
p1320
V\u6e58\u9102\u60c5
p1321
sV002642.sz
p1322
V\u8363\u4e4b\u8054
p1323
sV600162.ss
p1324
V\u9999\u6c5f\u63a7\u80a1
p1325
sV000661.sz
p1326
V\u957f\u6625\u9ad8\u65b0
p1327
sV002666.sz
p1328
V\u5fb7\u8054\u96c6\u56e2
p1329
sV000767.sz
p1330
V\u6f33\u6cfd\u7535\u529b
p1331
sV600737.ss
p1332
V\u4e2d\u7cae\u5c6f\u6cb3
p1333
sV002687.sz
p1334
V\u4e54\u6cbb\u767d
p1335
sV002458.sz
p1336
V\u76ca\u751f\u80a1\u4efd
p1337
sV600285.ss
p1338
V\u7f9a\u9510\u5236\u836f
p1339
sV000892.sz
p1340
V\u661f\u7f8e\u8054\u5408
p1341
sV601618.ss
p1342
V\u4e2d\u56fd\u4e2d\u51b6
p1343
sV002532.sz
p1344
V\u65b0\u754c\u6cf5\u4e1a
p1345
sV002368.sz
p1346
V\u592a\u6781\u80a1\u4efd
p1347
sV002510.sz
p1348
V\u5929\u6c7d\u6a21
p1349
sV600807.ss
p1350
V\u5929\u4e1a\u80a1\u4efd
p1351
sV000782.sz
p1352
V\u7f8e\u8fbe\u80a1\u4efd
p1353
sV002338.sz
p1354
V\u5965\u666e\u5149\u7535
p1355
sV184722.sz
p1356
V\u57fa\u91d1\u4e45\u5609
p1357
sV300085.sz
p1358
V\u94f6\u4e4b\u6770
p1359
sV300291.sz
p1360
V\u534e\u5f55\u767e\u7eb3
p1361
sV600081.ss
p1362
V\u4e1c\u98ce\u79d1\u6280
p1363
sV600249.ss
p1364
V\u4e24\u9762\u9488
p1365
sV200706.sz
p1366
V\u74e6\u8f74B
p1367
sV002563.sz
p1368
V\u68ee\u9a6c\u670d\u9970
p1369
sV600747.ss
p1370
V\u5927\u8fde\u63a7\u80a1
p1371
sV000875.sz
p1372
V\u5409\u7535\u80a1\u4efd
p1373
sV300207.sz
p1374
V\u6b23\u65fa\u8fbe
p1375
sV300055.sz
p1376
V\u4e07\u90a6\u8fbe
p1377
sV002285.sz
p1378
V\u4e16\u8054\u884c
p1379
sV600809.ss
p1380
V\u5c71\u897f\u6c7e\u9152
p1381
sV002683.sz
p1382
V\u5b8f\u5927\u7206\u7834
p1383
sV600094.ss
p1384
V\u5927\u540d\u57ce
p1385
sV159909.sz
p1386
V\u6df1TMT
p1387
sV002665.sz
p1388
V\u9996\u822a\u8282\u80fd
p1389
sV600520.ss
p1390
V\u4e2d\u53d1\u79d1\u6280
p1391
sV300336.sz
p1392
V\u65b0\u6587\u5316
p1393
sV000902.sz
p1394
V\u4e2d\u56fd\u670d\u88c5
p1395
sV600080.ss
p1396
V\u91d1\u82b1\u80a1\u4efd
p1397
sV600351.ss
p1398
V\u4e9a\u5b9d\u836f\u4e1a
p1399
sV603123.ss
p1400
V\u7fe0\u5fae\u80a1\u4efd
p1401
sV300081.sz
p1402
V\u6052\u4fe1\u79fb\u52a8
p1403
sV002309.sz
p1404
V\u4e2d\u5229\u79d1\u6280
p1405
sV000713.sz
p1406
V\u4e30\u4e50\u79cd\u4e1a
p1407
sV600190.ss
p1408
V\u9526\u5dde\u6e2f
p1409
sV600798.ss
p1410
V\u5b81\u6ce2\u6d77\u8fd0
p1411
sV300034.sz
p1412
V\u94a2\u7814\u9ad8\u7eb3
p1413
sV000528.sz
p1414
V\u67f3\u5de5
p1415
sV300111.sz
p1416
V\u5411\u65e5\u8475
p1417
sV600566.ss
p1418
V\u6d2a\u57ce\u80a1\u4efd
p1419
sV002277.sz
p1420
V\u53cb\u963f\u80a1\u4efd
p1421
sV002357.sz
p1422
V\u5bcc\u4e34\u8fd0\u4e1a
p1423
sV500008.ss
p1424
V\u57fa\u91d1\u5174\u534e
p1425
sV002340.sz
p1426
V\u683c\u6797\u7f8e
p1427
sV300199.sz
p1428
V\u7ff0\u5b87\u836f\u4e1a
p1429
sV600685.ss
p1430
V\u5e7f\u8239\u56fd\u9645
p1431
sV002022.sz
p1432
V\u79d1\u534e\u751f\u7269
p1433
sV002098.sz
p1434
V\u6d54\u5174\u80a1\u4efd
p1435
sV000633.sz
p1436
V\u5408\u91d1\u6295\u8d44
p1437
sV002654.sz
p1438
V\u4e07\u6da6\u79d1\u6280
p1439
sV002517.sz
p1440
V\u6cf0\u4e9a\u80a1\u4efd
p1441
sV600018.ss
p1442
V\u4e0a\u6e2f\u96c6\u56e2
p1443
sV300133.sz
p1444
V\u534e\u7b56\u5f71\u89c6
p1445
sV002373.sz
p1446
V\u8054\u4fe1\u6c38\u76ca
p1447
sV200020.sz
p1448
V\u6df1\u534e\u53d1B
p1449
sV000717.sz
p1450
V*ST\u97f6\u94a2
p1451
sV002674.sz
p1452
V\u5174\u4e1a\u79d1\u6280
p1453
sV600505.ss
p1454
V\u897f\u660c\u7535\u529b
p1455
sV002367.sz
p1456
V\u5eb7\u529b\u7535\u68af
p1457
sV200055.sz
p1458
V\u65b9\u5927B
p1459
sV300233.sz
p1460
V\u91d1\u57ce\u533b\u836f
p1461
sV000028.sz
p1462
V\u56fd\u836f\u4e00\u81f4
p1463
sV002655.sz
p1464
V\u5171\u8fbe\u7535\u58f0
p1465
sV300048.sz
p1466
V\u5408\u5eb7\u53d8\u9891
p1467
sV200418.sz
p1468
V\u5c0f\u5929\u9e45B
p1469
sV600012.ss
p1470
V\u7696\u901a\u9ad8\u901f
p1471
sV002130.sz
p1472
V\u6c83\u5c14\u6838\u6750
p1473
sV300026.sz
p1474
V\u7ea2\u65e5\u836f\u4e1a
p1475
sV601218.ss
p1476
V\u5409\u946b\u79d1\u6280
p1477
sV000725.sz
p1478
V\u4eac\u4e1c\u65b9A
p1479
sV002275.sz
p1480
V\u6842\u6797\u4e09\u91d1
p1481
sV900935.ss
p1482
V\u9633\u6668B\u80a1
p1483
sV600581.ss
p1484
V\u516b\u4e00\u94a2\u94c1
p1485
sV601100.ss
p1486
V\u6052\u7acb\u6cb9\u7f38
p1487
sV600729.ss
p1488
V\u91cd\u5e86\u767e\u8d27
p1489
sV600498.ss
p1490
V\u70fd\u706b\u901a\u4fe1
p1491
sV002054.sz
p1492
V\u5fb7\u7f8e\u5316\u5de5
p1493
sV000888.sz
p1494
V\u5ce8\u7709\u5c71A
p1495
sV600532.ss
p1496
V\u5b8f\u8fbe\u77ff\u4e1a
p1497
sV601002.ss
p1498
V\u664b\u4ebf\u5b9e\u4e1a
p1499
sV002320.sz
p1500
V\u6d77\u5ce1\u80a1\u4efd
p1501
sV300010.sz
p1502
V\u7acb\u601d\u8fb0
p1503
sV000548.sz
p1504
V\u6e56\u5357\u6295\u8d44
p1505
sV300094.sz
p1506
V\u56fd\u8054\u6c34\u4ea7
p1507
sV600253.ss
p1508
V\u5929\u65b9\u836f\u4e1a
p1509
sV600069.ss
p1510
V\u94f6\u9e3d\u6295\u8d44
p1511
sV600422.ss
p1512
V\u6606\u660e\u5236\u836f
p1513
sV000558.sz
p1514
V\u83b1\u8335\u7f6e\u4e1a
p1515
sV600228.ss
p1516
V\u660c\u4e5d\u751f\u5316
p1517
sV600629.ss
p1518
V\u68f1\u5149\u5b9e\u4e1a
p1519
sV000613.sz
p1520
V\u5927\u4e1c\u6d77A
p1521
sV000551.sz
p1522
V\u521b\u5143\u79d1\u6280
p1523
sV600281.ss
p1524
V\u592a\u5316\u80a1\u4efd
p1525
sV002030.sz
p1526
V\u8fbe\u5b89\u57fa\u56e0
p1527
sV002017.sz
p1528
V\u4e1c\u4fe1\u548c\u5e73
p1529
sV600295.ss
p1530
V\u9102\u5c14\u591a\u65af
p1531
sV002521.sz
p1532
V\u9f50\u5cf0\u65b0\u6750
p1533
sV000069.sz
p1534
V\u534e\u4fa8\u57ceA
p1535
sV200550.sz
p1536
V\u6c5f\u94c3B
p1537
sV000768.sz
p1538
V\u4e2d\u822a\u98de\u673a
p1539
sV002010.sz
p1540
V\u4f20\u5316\u80a1\u4efd
p1541
sV200058.sz
p1542
V\u6df1\u8d5b\u683cB
p1543
sV600647.ss
p1544
V\u540c\u8fbe\u521b\u4e1a
p1545
sV000017.sz
p1546
V*ST\u4e2d\u534eA
p1547
sV002114.sz
p1548
V\u7f57\u5e73\u950c\u7535
p1549
sV300209.sz
p1550
V\u5929\u6cfd\u4fe1\u606f
p1551
sV002226.sz
p1552
V\u6c5f\u5357\u5316\u5de5
p1553
sV300022.sz
p1554
V\u5409\u5cf0\u519c\u673a
p1555
sV601006.ss
p1556
V\u5927\u79e6\u94c1\u8def
p1557
sV002212.sz
p1558
V\u5357\u6d0b\u80a1\u4efd
p1559
sV300098.sz
p1560
V\u9ad8\u65b0\u5174
p1561
sV600231.ss
p1562
V\u51cc\u94a2\u80a1\u4efd
p1563
sV000523.sz
p1564
V\u5e7f\u5dde\u6d6a\u5947
p1565
sV200505.sz
p1566
V*ST\u73e0\u6c5fB
p1567
sV300244.sz
p1568
V\u8fea\u5b89\u8bca\u65ad
p1569
sV000428.sz
p1570
V\u534e\u5929\u9152\u5e97
p1571
sV601566.ss
p1572
V\u4e5d\u7267\u738b
p1573
sV300181.sz
p1574
V\u4f50\u529b\u836f\u4e1a
p1575
sV300321.sz
p1576
V\u540c\u5927\u80a1\u4efd
p1577
sV002579.sz
p1578
V\u4e2d\u4eac\u7535\u5b50
p1579
sV300167.sz
p1580
V\u8fea\u5a01\u89c6\u8baf
p1581
sV200016.sz
p1582
V\u6df1\u5eb7\u4f73B
p1583
sV600675.ss
p1584
V\u4e2d\u534e\u4f01\u4e1a
p1585
sV000571.sz
p1586
V\u65b0\u5927\u6d32A
p1587
sV200570.sz
p1588
V\u82cf\u5e38\u67f4B
p1589
sV002432.sz
p1590
V\u4e5d\u5b89\u533b\u7597
p1591
sV000806.sz
p1592
V\u94f6\u6cb3\u6295\u8d44
p1593
sV300265.sz
p1594
V\u901a\u5149\u7ebf\u7f06
p1595
sV300343.sz
p1596
V\u8054\u521b\u8282\u80fd
p1597
sV600715.ss
p1598
V\u677e\u8fbd\u6c7d\u8f66
p1599
sV600768.ss
p1600
V\u5b81\u6ce2\u5bcc\u90a6
p1601
sV300064.sz
p1602
V\u8c6b\u91d1\u521a\u77f3
p1603
sV600156.ss
p1604
V\u534e\u5347\u80a1\u4efd
p1605
sV000998.sz
p1606
V\u9686\u5e73\u9ad8\u79d1
p1607
sV002482.sz
p1608
V\u5e7f\u7530\u80a1\u4efd
p1609
sV601989.ss
p1610
V\u4e2d\u56fd\u91cd\u5de5
p1611
sV002096.sz
p1612
V\u5357\u5cad\u6c11\u7206
p1613
sV000032.sz
p1614
V\u6df1\u6851\u8fbeA
p1615
sV002336.sz
p1616
V\u4eba\u4eba\u4e50
p1617
sV600236.ss
p1618
V\u6842\u51a0\u7535\u529b
p1619
sV002467.sz
p1620
V\u4e8c\u516d\u4e09
p1621
sV000045.sz
p1622
V\u6df1\u7eba\u7ec7A
p1623
sV000960.sz
p1624
V\u9521\u4e1a\u80a1\u4efd
p1625
sV600086.ss
p1626
V\u4e1c\u65b9\u91d1\u94b0
p1627
sV600831.ss
p1628
V\u5e7f\u7535\u7f51\u7edc
p1629
sV600569.ss
p1630
V\u5b89\u9633\u94a2\u94c1
p1631
sV000023.sz
p1632
V\u6df1\u5929\u5730A
p1633
sV000589.sz
p1634
V\u9ed4\u8f6e\u80ceA
p1635
sV002541.sz
p1636
V\u9e3f\u8def\u94a2\u6784
p1637
sV002555.sz
p1638
V\u987a\u8363\u80a1\u4efd
p1639
sV600671.ss
p1640
V\u5929\u76ee\u836f\u4e1a
p1641
sV600599.ss
p1642
V\u718a\u732b\u70df\u82b1
p1643
sV300285.sz
p1644
V\u56fd\u74f7\u6750\u6599
p1645
sV000033.sz
p1646
V\u65b0\u90fd\u9152\u5e97
p1647
sV159923.sz
p1648
V100ETF
p1649
sV600036.ss
p1650
V\u62db\u5546\u94f6\u884c
p1651
sV600711.ss
p1652
V\u76db\u5c6f\u77ff\u4e1a
p1653
sV002369.sz
p1654
V\u5353\u7ffc\u79d1\u6280
p1655
sV002213.sz
p1656
V\u7279\u5c14\u4f73
p1657
sV002534.sz
p1658
V\u676d\u9505\u80a1\u4efd
p1659
sV002230.sz
p1660
V\u79d1\u5927\u8baf\u98de
p1661
sV002314.sz
p1662
V\u96c5\u81f4\u80a1\u4efd
p1663
sV300163.sz
p1664
V\u5148\u950b\u65b0\u6750
p1665
sV600026.ss
p1666
V\u4e2d\u6d77\u53d1\u5c55
p1667
sV600966.ss
p1668
V\u535a\u6c47\u7eb8\u4e1a
p1669
sV600136.ss
p1670
V\u9053\u535a\u80a1\u4efd
p1671
sV600519.ss
p1672
V\u8d35\u5dde\u8305\u53f0
p1673
sV600704.ss
p1674
V\u7269\u4ea7\u4e2d\u5927
p1675
sV002631.sz
p1676
V\u5fb7\u5c14\u5bb6\u5c45
p1677
sV300067.sz
p1678
V\u5b89\u8bfa\u5176
p1679
sV000665.sz
p1680
V\u6e56\u5317\u5e7f\u7535
p1681
sV600722.ss
p1682
V\u91d1\u725b\u5316\u5de5
p1683
sV600496.ss
p1684
V\u7cbe\u5de5\u94a2\u6784
p1685
sV601991.ss
p1686
V\u5927\u5510\u53d1\u7535
p1687
sV300089.sz
p1688
V\u957f\u57ce\u96c6\u56e2
p1689
sV601808.ss
p1690
V\u4e2d\u6d77\u6cb9\u670d
p1691
sV600481.ss
p1692
V\u53cc\u826f\u8282\u80fd
p1693
sV000546.sz
p1694
V\u5149\u534e\u63a7\u80a1
p1695
sV600983.ss
p1696
V\u5408\u80a5\u4e09\u6d0b
p1697
sV600067.ss
p1698
V\u51a0\u57ce\u5927\u901a
p1699
sV600509.ss
p1700
V\u5929\u5bcc\u70ed\u7535
p1701
sV002610.sz
p1702
V\u7231\u5eb7\u79d1\u6280
p1703
sV600978.ss
p1704
V\u5b9c\u534e\u6728\u4e1a
p1705
sV300140.sz
p1706
V\u542f\u6e90\u88c5\u5907
p1707
sV000850.sz
p1708
V\u534e\u8302\u80a1\u4efd
p1709
sV300309.sz
p1710
V\u5409\u827e\u79d1\u6280
p1711
sV002121.sz
p1712
V\u79d1\u9646\u7535\u5b50
p1713
sV300262.sz
p1714
V\u5df4\u5b89\u6c34\u52a1
p1715
sV000027.sz
p1716
V\u6df1\u5733\u80fd\u6e90
p1717
sV601186.ss
p1718
V\u4e2d\u56fd\u94c1\u5efa
p1719
sV002653.sz
p1720
V\u6d77\u601d\u79d1
p1721
sV002538.sz
p1722
V\u53f8\u5c14\u7279
p1723
sV002613.sz
p1724
V\u5317\u73bb\u80a1\u4efd
p1725
sV002520.sz
p1726
V\u65e5\u53d1\u7cbe\u673a
p1727
sV002324.sz
p1728
V\u666e\u5229\u7279
p1729
sV600090.ss
p1730
V\u5564\u9152\u82b1
p1731
sV000615.sz
p1732
V\u6e56\u5317\u91d1\u73af
p1733
sV600058.ss
p1734
V\u4e94\u77ff\u53d1\u5c55
p1735
sV600109.ss
p1736
V\u56fd\u91d1\u8bc1\u5238
p1737
sV002518.sz
p1738
V\u79d1\u58eb\u8fbe
p1739
sV601515.ss
p1740
V\u4e1c\u98ce\u80a1\u4efd
p1741
sV000408.sz
p1742
V\u91d1\u8c37\u6e90
p1743
sV002446.sz
p1744
V\u76db\u8def\u901a\u4fe1
p1745
sV600818.ss
p1746
V\u4e2d\u8def\u80a1\u4efd
p1747
sV002696.sz
p1748
V\u767e\u6d0b\u80a1\u4efd
p1749
sV002008.sz
p1750
V\u5927\u65cf\u6fc0\u5149
p1751
sV600485.ss
p1752
V\u4e2d\u521b\u4fe1\u6d4b
p1753
sV300051.sz
p1754
V\u4e09\u4e94\u4e92\u8054
p1755
sV900929.ss
p1756
V\u9526\u65c5B\u80a1
p1757
sV000848.sz
p1758
V\u627f\u5fb7\u9732\u9732
p1759
sV300296.sz
p1760
V\u5229\u4e9a\u5fb7
p1761
sV600894.ss
p1762
V\u5e7f\u65e5\u80a1\u4efd
p1763
sV600691.ss
p1764
V\u9633\u7164\u5316\u5de5
p1765
sV600335.ss
p1766
V\u56fd\u673a\u6c7d\u8f66
p1767
sV600279.ss
p1768
V\u91cd\u5e86\u6e2f\u4e5d
p1769
sV002080.sz
p1770
V\u4e2d\u6750\u79d1\u6280
p1771
sV600611.ss
p1772
V\u5927\u4f17\u4ea4\u901a
p1773
sV000909.sz
p1774
V\u6570\u6e90\u79d1\u6280
p1775
sV300092.sz
p1776
V\u79d1\u65b0\u673a\u7535
p1777
sV000419.sz
p1778
V\u901a\u7a0b\u63a7\u80a1
p1779
sV600428.ss
p1780
V\u4e2d\u8fdc\u822a\u8fd0
p1781
sV600267.ss
p1782
V\u6d77\u6b63\u836f\u4e1a
p1783
sV002199.sz
p1784
V\u4e1c\u6676\u7535\u5b50
p1785
sV600128.ss
p1786
V\u5f18\u4e1a\u80a1\u4efd
p1787
sV002151.sz
p1788
V\u5317\u6597\u661f\u901a
p1789
sV600664.ss
p1790
V\u54c8\u836f\u80a1\u4efd
p1791
sV002134.sz
p1792
V\u5929\u6d25\u666e\u6797
p1793
sV600210.ss
p1794
V\u7d2b\u6c5f\u4f01\u4e1a
p1795
sV002049.sz
p1796
V\u540c\u65b9\u56fd\u82af
p1797
sV600714.ss
p1798
V\u91d1\u745e\u77ff\u4e1a
p1799
sV000488.sz
p1800
V\u6668\u9e23\u7eb8\u4e1a
p1801
sV184699.sz
p1802
V\u57fa\u91d1\u540c\u76db
p1803
sV600643.ss
p1804
V\u7231\u5efa\u80a1\u4efd
p1805
sV000797.sz
p1806
V\u4e2d\u56fd\u6b66\u5937
p1807
sV000652.sz
p1808
V\u6cf0\u8fbe\u80a1\u4efd
p1809
sV002426.sz
p1810
V\u80dc\u5229\u7cbe\u5bc6
p1811
sV200026.sz
p1812
V\u98de\u4e9a\u8fbeB
p1813
sV600273.ss
p1814
V\u534e\u82b3\u7eba\u7ec7
p1815
sV600984.ss
p1816
V\u5efa\u8bbe\u673a\u68b0
p1817
sV600378.ss
p1818
V\u5929\u79d1\u80a1\u4efd
p1819
sV300325.sz
p1820
V\u5fb7\u5a01\u65b0\u6750
p1821
sV900918.ss
p1822
V\u8000\u76aeB\u80a1
p1823
sV002511.sz
p1824
V\u4e2d\u987a\u6d01\u67d4
p1825
sV002026.sz
p1826
V\u5c71\u4e1c\u5a01\u8fbe
p1827
sV600763.ss
p1828
V\u901a\u7b56\u533b\u7597
p1829
sV300152.sz
p1830
V\u71c3\u63a7\u79d1\u6280
p1831
sV300331.sz
p1832
V\u82cf\u5927\u7ef4\u683c
p1833
sV300258.sz
p1834
V\u7cbe\u953b\u79d1\u6280
p1835
sV600143.ss
p1836
V\u91d1\u53d1\u79d1\u6280
p1837
sV601668.ss
p1838
V\u4e2d\u56fd\u5efa\u7b51
p1839
sV000953.sz
p1840
V*ST\u6cb3\u5316
p1841
sV600206.ss
p1842
V\u6709\u7814\u65b0\u6750
p1843
sV002397.sz
p1844
V\u68a6\u6d01\u5bb6\u7eba
p1845
sV600088.ss
p1846
V\u4e2d\u89c6\u4f20\u5a92
p1847
sV600038.ss
p1848
V\u54c8\u98de\u80a1\u4efd
p1849
sV600668.ss
p1850
V\u5c16\u5cf0\u96c6\u56e2
p1851
sV000587.sz
p1852
V\u91d1\u53f6\u73e0\u5b9d
p1853
sV300158.sz
p1854
V\u632f\u4e1c\u5236\u836f
p1855
sV002016.sz
p1856
V\u4e16\u8363\u5146\u4e1a
p1857
sV600111.ss
p1858
V\u5305\u94a2\u7a00\u571f
p1859
sV002009.sz
p1860
V\u5929\u5947\u80a1\u4efd
p1861
sV002616.sz
p1862
V\u957f\u9752\u96c6\u56e2
p1863
sV600578.ss
p1864
V\u4eac\u80fd\u7535\u529b
p1865
sV600597.ss
p1866
V\u5149\u660e\u4e73\u4e1a
p1867
sV000957.sz
p1868
V\u4e2d\u901a\u5ba2\u8f66
p1869
sV601126.ss
p1870
V\u56db\u65b9\u80a1\u4efd
p1871
sV000997.sz
p1872
V\u65b0\u5927\u9646
p1873
sV600232.ss
p1874
V\u91d1\u9e70\u80a1\u4efd
p1875
sV600008.ss
p1876
V\u9996\u521b\u80a1\u4efd
p1877
sV000803.sz
p1878
V\u91d1\u5b87\u8f66\u57ce
p1879
sV002253.sz
p1880
V\u5ddd\u5927\u667a\u80dc
p1881
sV002101.sz
p1882
V\u5e7f\u4e1c\u9e3f\u56fe
p1883
sV000876.sz
p1884
V\u65b0\u5e0c\u671b
p1885
sV600166.ss
p1886
V\u798f\u7530\u6c7d\u8f66
p1887
sV159906.sz
p1888
V\u6df1\u6210\u957f
p1889
sV300109.sz
p1890
V\u65b0\u5f00\u6e90
p1891
sV002662.sz
p1892
V\u4eac\u5a01\u80a1\u4efd
p1893
sV159911.sz
p1894
V\u6c11\u8425ETF
p1895
sV600390.ss
p1896
V\u91d1\u745e\u79d1\u6280
p1897
sV600255.ss
p1898
V\u946b\u79d1\u6750\u6599
p1899
sV000035.sz
p1900
V*ST\u79d1\u5065
p1901
sV300312.sz
p1902
V\u90a6\u8baf\u6280\u672f
p1903
sV600477.ss
p1904
V\u676d\u8427\u94a2\u6784
p1905
sV601898.ss
p1906
V\u4e2d\u7164\u80fd\u6e90
p1907
sV000695.sz
p1908
V\u6ee8\u6d77\u80fd\u6e90
p1909
sV002393.sz
p1910
V\u529b\u751f\u5236\u836f
p1911
sV002034.sz
p1912
V\u7f8e\u6b23\u8fbe
p1913
sV000759.sz
p1914
V\u4e2d\u767e\u96c6\u56e2
p1915
sV600063.ss
p1916
V\u7696\u7ef4\u9ad8\u65b0
p1917
sV300068.sz
p1918
V\u5357\u90fd\u7535\u6e90
p1919
sV600167.ss
p1920
V\u8054\u7f8e\u63a7\u80a1
p1921
sV600016.ss
p1922
V\u6c11\u751f\u94f6\u884c
p1923
sV500058.ss
p1924
V\u57fa\u91d1\u94f6\u4e30
p1925
sV000078.sz
p1926
V\u6d77\u738b\u751f\u7269
p1927
sV600004.ss
p1928
V\u767d\u4e91\u673a\u573a
p1929
sV601818.ss
p1930
V\u5149\u5927\u94f6\u884c
p1931
sV002606.sz
p1932
V\u5927\u8fde\u7535\u74f7
p1933
sV200029.sz
p1934
V\u6df1\u6df1\u623fB
p1935
sV002698.sz
p1936
V\u535a\u5b9e\u80a1\u4efd
p1937
sV002438.sz
p1938
V\u6c5f\u82cf\u795e\u901a
p1939
sV002042.sz
p1940
V\u534e\u5b5a\u8272\u7eba
p1941
sV159917.sz
p1942
V\u4e2d\u5c0f\u6210\u957f
p1943
sV184692.sz
p1944
V\u57fa\u91d1\u88d5\u9686
p1945
sV603077.ss
p1946
V\u548c\u90a6\u80a1\u4efd
p1947
sV600648.ss
p1948
V\u5916\u9ad8\u6865
p1949
sV600131.ss
p1950
V\u5cb7\u6c5f\u6c34\u7535
p1951
sV300240.sz
p1952
V\u98de\u529b\u8fbe
p1953
sV002332.sz
p1954
V\u4ed9\u741a\u5236\u836f
p1955
sV300185.sz
p1956
V\u901a\u88d5\u91cd\u5de5
p1957
sV002491.sz
p1958
V\u901a\u9f0e\u5149\u7535
p1959
sV300138.sz
p1960
V\u6668\u5149\u751f\u7269
p1961
sV002141.sz
p1962
V\u84c9\u80dc\u8d85\u5fae
p1963
sV000737.sz
p1964
V\u5357\u98ce\u5316\u5de5
p1965
sV900939.ss
p1966
V\u6c47\u4e3dB
p1967
sV000776.sz
p1968
V\u5e7f\u53d1\u8bc1\u5238
p1969
sV002682.sz
p1970
V\u9f99\u6d32\u80a1\u4efd
p1971
sV002058.sz
p1972
V\u5a01\u5c14\u6cf0
p1973
sV002254.sz
p1974
V\u6cf0\u548c\u65b0\u6750
p1975
sV600115.ss
p1976
V\u4e1c\u65b9\u822a\u7a7a
p1977
sV601890.ss
p1978
V\u4e9a\u661f\u951a\u94fe
p1979
sV600776.ss
p1980
V\u4e1c\u65b9\u901a\u4fe1
p1981
sV600007.ss
p1982
V\u4e2d\u56fd\u56fd\u8d38
p1983
sV002189.sz
p1984
V\u5229\u8fbe\u5149\u7535
p1985
sV002007.sz
p1986
V\u534e\u5170\u751f\u7269
p1987
sV000656.sz
p1988
V\u91d1\u79d1\u80a1\u4efd
p1989
sV601313.ss
p1990
V\u6c5f\u5357\u5609\u6377
p1991
sV300129.sz
p1992
V\u6cf0\u80dc\u98ce\u80fd
p1993
sV600562.ss
p1994
V\u56fd\u777f\u79d1\u6280
p1995
sV000625.sz
p1996
V\u957f\u5b89\u6c7d\u8f66
p1997
sV601801.ss
p1998
V\u7696\u65b0\u4f20\u5a92
p1999
sV600802.ss
p2000
V\u798f\u5efa\u6c34\u6ce5
p2001
sV002636.sz
p2002
V\u91d1\u5b89\u56fd\u7eaa
p2003
sV002463.sz
p2004
V\u6caa\u7535\u80a1\u4efd
p2005
sV300256.sz
p2006
V\u661f\u661f\u79d1\u6280
p2007
sV300355.sz
p2008
V\u8499\u8349\u6297\u65f1
p2009
sV900902.ss
p2010
V\u5e02\u5317B\u80a1
p2011
sV002234.sz
p2012
V\u6c11\u548c\u80a1\u4efd
p2013
sV002200.sz
p2014
V\u7eff\u5927\u5730
p2015
sV600980.ss
p2016
V\u5317\u77ff\u78c1\u6750
p2017
sV600239.ss
p2018
V\u4e91\u5357\u57ce\u6295
p2019
sV002545.sz
p2020
V\u4e1c\u65b9\u94c1\u5854
p2021
sV513100.ss
p2022
V\u7eb3\u6307ETF
p2023
sV002420.sz
p2024
V\u6bc5\u660c\u80a1\u4efd
p2025
sV002614.sz
p2026
V\u8499\u53d1\u5229
p2027
sV600893.ss
p2028
V\u822a\u7a7a\u52a8\u529b
p2029
sV600876.ss
p2030
V\u6d1b\u9633\u73bb\u7483
p2031
sV000985.sz
p2032
V\u5927\u5e86\u534e\u79d1
p2033
sV159927.sz
p2034
VA300ETF
p2035
sV002649.sz
p2036
V\u535a\u5f66\u79d1\u6280
p2037
sV600962.ss
p2038
V\u56fd\u6295\u4e2d\u9c81
p2039
sV601766.ss
p2040
V\u4e2d\u56fd\u5357\u8f66
p2041
sV000948.sz
p2042
V\u5357\u5929\u4fe1\u606f
p2043
sV300347.sz
p2044
V\u6cf0\u683c\u533b\u836f
p2045
sV600241.ss
p2046
V\u65f6\u4ee3\u4e07\u6052
p2047
sV300107.sz
p2048
V\u5efa\u65b0\u80a1\u4efd
p2049
sV002659.sz
p2050
V\u4e2d\u6cf0\u6865\u6881
p2051
sV600307.ss
p2052
V\u9152\u94a2\u5b8f\u5174
p2053
sV000716.sz
p2054
V\u5357\u65b9\u98df\u54c1
p2055
sV000816.sz
p2056
V\u6c5f\u6dee\u52a8\u529b
p2057
sV600410.ss
p2058
V\u534e\u80dc\u5929\u6210
p2059
sV002175.sz
p2060
V\u5e7f\u9646\u6570\u6d4b
p2061
sV900905.ss
p2062
V\u8001\u51e4\u7965B
p2063
sV600462.ss
p2064
V\u77f3\u5c98\u7eb8\u4e1a
p2065
sV002204.sz
p2066
V\u5927\u8fde\u91cd\u5de5
p2067
sV000638.sz
p2068
V\u4e07\u65b9\u53d1\u5c55
p2069
sV600546.ss
p2070
V\u5c71\u7164\u56fd\u9645
p2071
sV300236.sz
p2072
V\u4e0a\u6d77\u65b0\u9633
p2073
sV300281.sz
p2074
V\u91d1\u660e\u7cbe\u673a
p2075
sV600764.ss
p2076
V\u4e2d\u7535\u5e7f\u901a
p2077
sV000157.sz
p2078
V\u4e2d\u8054\u91cd\u79d1
p2079
sV002301.sz
p2080
V\u9f50\u5fc3\u6587\u5177
p2081
sV510620.ss
p2082
V\u6750\u6599\u884c\u4e1a
p2083
sV002679.sz
p2084
V\u798f\u5efa\u91d1\u68ee
p2085
sV184688.sz
p2086
V\u57fa\u91d1\u5f00\u5143
p2087
sV000923.sz
p2088
V\u6cb3\u5317\u5ba3\u5de5
p2089
sV000818.sz
p2090
V\u65b9\u5927\u5316\u5de5
p2091
sV600970.ss
p2092
V\u4e2d\u6750\u56fd\u9645
p2093
sV002569.sz
p2094
V\u6b65\u68ee\u80a1\u4efd
p2095
sV002079.sz
p2096
V\u82cf\u5dde\u56fa\u951d
p2097
sV002220.sz
p2098
V\u5929\u5b9d\u80a1\u4efd
p2099
sV300040.sz
p2100
V\u4e5d\u6d32\u7535\u6c14
p2101
sV600886.ss
p2102
V\u56fd\u6295\u7535\u529b
p2103
sV000828.sz
p2104
V\u4e1c\u839e\u63a7\u80a1
p2105
sV002692.sz
p2106
V\u8fdc\u7a0b\u7535\u7f06
p2107
sV000691.sz
p2108
V\u4e9a\u592a\u5b9e\u4e1a
p2109
sV002291.sz
p2110
V\u661f\u671f\u516d
p2111
sV600259.ss
p2112
V\u5e7f\u665f\u6709\u8272
p2113
sV601007.ss
p2114
V\u91d1\u9675\u996d\u5e97
p2115
sV000729.sz
p2116
V\u71d5\u4eac\u5564\u9152
p2117
sV600495.ss
p2118
V\u664b\u897f\u8f66\u8f74
p2119
sV600615.ss
p2120
V\u4e30\u534e\u80a1\u4efd
p2121
sV000565.sz
p2122
V\u6e1d\u4e09\u5ce1A
p2123
sV002193.sz
p2124
V\u5c71\u4e1c\u5982\u610f
p2125
sV600122.ss
p2126
V\u5b8f\u56fe\u9ad8\u79d1
p2127
sV000068.sz
p2128
V\u534e\u63a7\u8d5b\u683c
p2129
sV600782.ss
p2130
V\u65b0\u94a2\u80a1\u4efd
p2131
sV601258.ss
p2132
V\u5e9e\u5927\u96c6\u56e2
p2133
sV600373.ss
p2134
V\u4e2d\u6587\u4f20\u5a92
p2135
sV002584.sz
p2136
V\u897f\u9647\u5316\u5de5
p2137
sV300122.sz
p2138
V\u667a\u98de\u751f\u7269
p2139
sV600161.ss
p2140
V\u5929\u575b\u751f\u7269
p2141
sV000153.sz
p2142
V\u4e30\u539f\u836f\u4e1a
p2143
sV601333.ss
p2144
V\u5e7f\u6df1\u94c1\u8def
p2145
sV600470.ss
p2146
V\u516d\u56fd\u5316\u5de5
p2147
sV000971.sz
p2148
V\u84dd\u9f0e\u63a7\u80a1
p2149
sV002216.sz
p2150
V\u4e09\u5168\u98df\u54c1
p2151
sV600882.ss
p2152
V\u534e\u8054\u77ff\u4e1a
p2153
sV300300.sz
p2154
V\u6c49\u9f0e\u80a1\u4efd
p2155
sV300183.sz
p2156
V\u4e1c\u8f6f\u8f7d\u6ce2
p2157
sV002375.sz
p2158
V\u4e9a\u53a6\u80a1\u4efd
p2159
sV600491.ss
p2160
V\u9f99\u5143\u5efa\u8bbe
p2161
sV159903.sz
p2162
V\u6df1\u6210ETF
p2163
sV300299.sz
p2164
V\u5bcc\u6625\u901a\u4fe1
p2165
sV300044.sz
p2166
V\u8d5b\u4e3a\u667a\u80fd
p2167
sV002012.sz
p2168
V\u51ef\u6069\u80a1\u4efd
p2169
sV600356.ss
p2170
V\u6052\u4e30\u7eb8\u4e1a
p2171
sV002250.sz
p2172
V\u8054\u5316\u79d1\u6280
p2173
sV600202.ss
p2174
V\u54c8\u7a7a\u8c03
p2175
sV000905.sz
p2176
V\u53a6\u95e8\u6e2f\u52a1
p2177
sV150070.sz
p2178
V\u53cc\u529bB
p2179
sV600730.ss
p2180
V\u4e2d\u56fd\u9ad8\u79d1
p2181
sV900927.ss
p2182
V\u7269\u8d38B\u80a1
p2183
sV300146.sz
p2184
V\u6c64\u81e3\u500d\u5065
p2185
sV600277.ss
p2186
V\u4ebf\u5229\u80fd\u6e90
p2187
sV600593.ss
p2188
V\u5927\u8fde\u5723\u4e9a
p2189
sV000733.sz
p2190
V\u632f\u534e\u79d1\u6280
p2191
sV002092.sz
p2192
V\u4e2d\u6cf0\u5316\u5b66
p2193
sV600862.ss
p2194
V\u5357\u901a\u79d1\u6280
p2195
sV600582.ss
p2196
V\u5929\u5730\u79d1\u6280
p2197
sV600435.ss
p2198
V\u5317\u65b9\u5bfc\u822a
p2199
sV600184.ss
p2200
V\u5149\u7535\u80a1\u4efd
p2201
sV600733.ss
p2202
VS\u524d\u950b
p2203
sV600794.ss
p2204
V\u4fdd\u7a0e\u79d1\u6280
p2205
sV002700.sz
p2206
V\u65b0\u7586\u6d69\u6e90
p2207
sV300063.sz
p2208
V\u5929\u9f99\u96c6\u56e2
p2209
sV600684.ss
p2210
V\u73e0\u6c5f\u5b9e\u4e1a
p2211
sV601919.ss
p2212
V*ST\u8fdc\u6d0b
p2213
sV300001.sz
p2214
V\u7279\u9510\u5fb7
p2215
sV000753.sz
p2216
V\u6f33\u5dde\u53d1\u5c55
p2217
sV300079.sz
p2218
V\u6570\u7801\u89c6\u8baf
p2219
sV300211.sz
p2220
V\u4ebf\u901a\u79d1\u6280
p2221
sV603167.ss
p2222
V\u6e24\u6d77\u8f6e\u6e21
p2223
sV600310.ss
p2224
V\u6842\u4e1c\u7535\u529b
p2225
sV600420.ss
p2226
V\u73b0\u4ee3\u5236\u836f
p2227
sV000710.sz
p2228
V\u5929\u5174\u4eea\u8868
p2229
sV601139.ss
p2230
V\u6df1\u5733\u71c3\u6c14
p2231
sV600633.ss
p2232
V\u6d59\u62a5\u4f20\u5a92
p2233
sV000901.sz
p2234
V\u822a\u5929\u79d1\u6280
p2235
sV601717.ss
p2236
V\u90d1\u7164\u673a
p2237
sV900957.ss
p2238
V\u51cc\u4e91B\u80a1
p2239
sV900940.ss
p2240
V\u5927\u540d\u57ceB
p2241
sV002061.sz
p2242
V\u6c5f\u5c71\u5316\u5de5
p2243
sV002167.sz
p2244
V\u4e1c\u65b9\u9506\u4e1a
p2245
sV300316.sz
p2246
V\u6676\u76db\u673a\u7535
p2247
sV159919.sz
p2248
V300ETF
p2249
sV000531.sz
p2250
V\u7a57\u6052\u8fd0A
p2251
sV600076.ss
p2252
V\u9752\u9e1f\u534e\u5149
p2253
sV002559.sz
p2254
V\u4e9a\u5a01\u80a1\u4efd
p2255
sV600329.ss
p2256
V\u4e2d\u65b0\u836f\u4e1a
p2257
sV002577.sz
p2258
V\u96f7\u67cf\u79d1\u6280
p2259
sV600436.ss
p2260
V\u7247\u4ed4\u7640
p2261
sV600723.ss
p2262
V\u9996\u5546\u80a1\u4efd
p2263
sV900901.ss
p2264
V\u4eea\u7535B\u80a1
p2265
sV600315.ss
p2266
V\u4e0a\u6d77\u5bb6\u5316
p2267
sV600760.ss
p2268
V\u4e2d\u822a\u9ed1\u8c79
p2269
sV002602.sz
p2270
V\u4e16\u7eaa\u534e\u901a
p2271
sV000961.sz
p2272
V\u4e2d\u5357\u5efa\u8bbe
p2273
sV000668.sz
p2274
V\u8363\u4e30\u63a7\u80a1
p2275
sV002449.sz
p2276
V\u56fd\u661f\u5149\u7535
p2277
sV300274.sz
p2278
V\u9633\u5149\u7535\u6e90
p2279
sV600400.ss
p2280
V\u7ea2\u8c46\u80a1\u4efd
p2281
sV002568.sz
p2282
V\u767e\u6da6\u80a1\u4efd
p2283
sV300304.sz
p2284
V\u4e91\u610f\u7535\u6c14
p2285
sV600068.ss
p2286
V\u845b\u6d32\u575d
p2287
sV002145.sz
p2288
V\u4e2d\u6838\u949b\u767d
p2289
sV002497.sz
p2290
V\u96c5\u5316\u96c6\u56e2
p2291
sV600192.ss
p2292
V\u957f\u57ce\u7535\u5de5
p2293
sV002284.sz
p2294
V\u4e9a\u592a\u80a1\u4efd
p2295
sV600331.ss
p2296
V\u5b8f\u8fbe\u80a1\u4efd
p2297
sV600095.ss
p2298
V\u54c8\u9ad8\u79d1
p2299
sV600552.ss
p2300
V\u65b9\u5174\u79d1\u6280
p2301
sV600325.ss
p2302
V\u534e\u53d1\u80a1\u4efd
p2303
sV000936.sz
p2304
V\u534e\u897f\u80a1\u4efd
p2305
sV510900.ss
p2306
VH\u80a1ETF
p2307
sV600432.ss
p2308
V\u5409\u6069\u954d\u4e1a
p2309
sV601608.ss
p2310
V\u4e2d\u4fe1\u91cd\u5de5
p2311
sV900923.ss
p2312
V\u53cb\u8c0aB\u80a1
p2313
sV000975.sz
p2314
V\u94f6\u6cf0\u8d44\u6e90
p2315
sV600054.ss
p2316
V\u9ec4\u5c71\u65c5\u6e38
p2317
sV000983.sz
p2318
V\u897f\u5c71\u7164\u7535
p2319
sV000517.sz
p2320
V\u8363\u5b89\u5730\u4ea7
p2321
sV002113.sz
p2322
V\u5929\u6da6\u63a7\u80a1
p2323
sV600652.ss
p2324
V\u7231\u4f7f\u80a1\u4efd
p2325
sV600488.ss
p2326
V\u5929\u836f\u80a1\u4efd
p2327
sV600511.ss
p2328
V\u56fd\u836f\u80a1\u4efd
p2329
sV300179.sz
p2330
V\u56db\u65b9\u8fbe
p2331
sV300252.sz
p2332
V\u91d1\u4fe1\u8bfa
p2333
sV600105.ss
p2334
V\u6c38\u9f0e\u80a1\u4efd
p2335
sV601001.ss
p2336
V\u5927\u540c\u7164\u4e1a
p2337
sV300226.sz
p2338
V\u4e0a\u6d77\u94a2\u8054
p2339
sV600377.ss
p2340
V\u5b81\u6caa\u9ad8\u901f
p2341
sV002476.sz
p2342
V\u5b9d\u83ab\u80a1\u4efd
p2343
sV000708.sz
p2344
V\u5927\u51b6\u7279\u94a2
p2345
sV300126.sz
p2346
V\u9510\u5947\u80a1\u4efd
p2347
sV000920.sz
p2348
V\u5357\u65b9\u6c47\u901a
p2349
sV002356.sz
p2350
V\u6d69\u5b81\u8fbe
p2351
sV300243.sz
p2352
V\u745e\u4e30\u9ad8\u6750
p2353
sV600217.ss
p2354
V\u79e6\u5cad\u6c34\u6ce5
p2355
sV002033.sz
p2356
V\u4e3d\u6c5f\u65c5\u6e38
p2357
sV600853.ss
p2358
V\u9f99\u5efa\u80a1\u4efd
p2359
sV600644.ss
p2360
V\u4e50\u5c71\u7535\u529b
p2361
sV000727.sz
p2362
V\u534e\u4e1c\u79d1\u6280
p2363
sV300186.sz
p2364
V\u5927\u534e\u519c
p2365
sV002117.sz
p2366
V\u4e1c\u6e2f\u80a1\u4efd
p2367
sV000790.sz
p2368
V\u534e\u795e\u96c6\u56e2
p2369
sV300018.sz
p2370
V\u4e2d\u5143\u534e\u7535
p2371
sV002468.sz
p2372
V\u827e\u8fea\u897f
p2373
sV002171.sz
p2374
V\u7cbe\u8bda\u94dc\u4e1a
p2375
sV600180.ss
p2376
V\u745e\u8302\u901a
p2377
sV600638.ss
p2378
V\u65b0\u9ec4\u6d66
p2379
sV002628.sz
p2380
V\u6210\u90fd\u8def\u6865
p2381
sV002592.sz
p2382
V\u516b\u83f1\u79d1\u6280
p2383
sV300251.sz
p2384
V\u5149\u7ebf\u4f20\u5a92
p2385
sV600148.ss
p2386
V\u957f\u6625\u4e00\u4e1c
p2387
sV000410.sz
p2388
V\u6c88\u9633\u673a\u5e8a
p2389
sV002588.sz
p2390
V\u53f2\u4e39\u5229
p2391
sV600383.ss
p2392
V\u91d1\u5730\u96c6\u56e2
p2393
sV600311.ss
p2394
V\u8363\u534e\u5b9e\u4e1a
p2395
sV200011.sz
p2396
V\u6df1\u7269\u4e1aB
p2397
sV300193.sz
p2398
V\u4f73\u58eb\u79d1\u6280
p2399
sV300247.sz
p2400
V\u6851\u4e50\u91d1
p2401
sV000683.sz
p2402
V\u8fdc\u5174\u80fd\u6e90
p2403
sV601169.ss
p2404
V\u5317\u4eac\u94f6\u884c
p2405
sV002472.sz
p2406
V\u53cc\u73af\u4f20\u52a8
p2407
sV600683.ss
p2408
V\u4eac\u6295\u94f6\u6cf0
p2409
sV002125.sz
p2410
V\u6e58\u6f6d\u7535\u5316
p2411
sV000090.sz
p2412
V\u6df1\u5929\u5065
p2413
sV600126.ss
p2414
V\u676d\u94a2\u80a1\u4efd
p2415
sV600864.ss
p2416
V\u54c8\u6295\u80a1\u4efd
p2417
sV002514.sz
p2418
V\u5b9d\u99a8\u79d1\u6280
p2419
sV000937.sz
p2420
V\u5180\u4e2d\u80fd\u6e90
p2421
sV600884.ss
p2422
V\u6749\u6749\u80a1\u4efd
p2423
sV000890.sz
p2424
V\u6cd5\u5c14\u80dc
p2425
sV300231.sz
p2426
V\u94f6\u4fe1\u79d1\u6280
p2427
sV200726.sz
p2428
V\u9c81\u6cf0B
p2429
sV600829.ss
p2430
V\u4e09\u7cbe\u5236\u836f
p2431
sV900914.ss
p2432
V\u9526\u6295B\u80a1
p2433
sV002348.sz
p2434
V\u9ad8\u4e50\u80a1\u4efd
p2435
sV600499.ss
p2436
V\u79d1\u8fbe\u673a\u7535
p2437
sV002238.sz
p2438
V\u5929\u5a01\u89c6\u8baf
p2439
sV200771.sz
p2440
V\u676d\u6c7d\u8f6eB
p2441
sV600539.ss
p2442
VST\u72ee\u5934
p2443
sV900910.ss
p2444
V\u6d77\u7acbB\u80a1
p2445
sV601233.ss
p2446
V\u6850\u6606\u80a1\u4efd
p2447
sV600223.ss
p2448
V\u9c81\u5546\u7f6e\u4e1a
p2449
sV002487.sz
p2450
V\u5927\u91d1\u91cd\u5de5
p2451
sV002351.sz
p2452
V\u6f2b\u6b65\u8005
p2453
sV300115.sz
p2454
V\u957f\u76c8\u7cbe\u5bc6
p2455
sV600656.ss
p2456
V\u535a\u5143\u6295\u8d44
p2457
sV600827.ss
p2458
V\u53cb\u8c0a\u80a1\u4efd
p2459
sV600280.ss
p2460
V\u4e2d\u592e\u5546\u573a
p2461
sV002419.sz
p2462
V\u5929\u8679\u5546\u573a
p2463
sV002168.sz
p2464
V\u6df1\u5733\u60e0\u7a0b
p2465
sV600687.ss
p2466
V\u521a\u6cf0\u63a7\u80a1
p2467
sV601216.ss
p2468
V\u5185\u8499\u541b\u6b63
p2469
sV600734.ss
p2470
V\u5b9e\u8fbe\u96c6\u56e2
p2471
sV300014.sz
p2472
V\u4ebf\u7eac\u9502\u80fd
p2473
sV300006.sz
p2474
V\u83b1\u7f8e\u836f\u4e1a
p2475
sV600135.ss
p2476
V\u4e50\u51ef\u80f6\u7247
p2477
sV000619.sz
p2478
V\u6d77\u87ba\u578b\u6750
p2479
sV000627.sz
p2480
V\u5929\u8302\u96c6\u56e2
p2481
sV600538.ss
p2482
V\u5317\u6d77\u56fd\u53d1
p2483
sV000561.sz
p2484
V\u70fd\u706b\u7535\u5b50
p2485
sV002572.sz
p2486
V\u7d22\u83f2\u4e9a
p2487
sV600965.ss
p2488
V\u798f\u6210\u4e94\u4e30
p2489
sV000060.sz
p2490
V\u4e2d\u91d1\u5cad\u5357
p2491
sV601999.ss
p2492
V\u51fa\u7248\u4f20\u5a92
p2493
sV002323.sz
p2494
V\u4e2d\u8054\u7535\u6c14
p2495
sV000779.sz
p2496
V\u4e09\u6bdb\u6d3e\u795e
p2497
sV000591.sz
p2498
V\u6850\u541b\u9601
p2499
sV002228.sz
p2500
V\u5408\u5174\u5305\u88c5
p2501
sV600482.ss
p2502
V\u98ce\u5e06\u80a1\u4efd
p2503
sV000552.sz
p2504
V\u9756\u8fdc\u7164\u7535
p2505
sV002371.sz
p2506
V\u4e03\u661f\u7535\u5b50
p2507
sV300056.sz
p2508
V\u4e09\u7ef4\u4e1d
p2509
sV000570.sz
p2510
V\u82cf\u5e38\u67f4A
p2511
sV300177.sz
p2512
V\u4e2d\u6d77\u8fbe
p2513
sV600589.ss
p2514
V\u5e7f\u4e1c\u6995\u6cf0
p2515
sV002506.sz
p2516
V*ST\u8d85\u65e5
p2517
sV002246.sz
p2518
V\u5317\u5316\u80a1\u4efd
p2519
sV600362.ss
p2520
V\u6c5f\u897f\u94dc\u4e1a
p2521
sV300024.sz
p2522
V\u673a\u5668\u4eba
p2523
sV002596.sz
p2524
V\u6d77\u5357\u745e\u6cfd
p2525
sV600022.ss
p2526
V\u5c71\u4e1c\u94a2\u94c1
p2527
sV002632.sz
p2528
V\u9053\u660e\u5149\u5b66
p2529
sV000913.sz
p2530
V\u94b1\u6c5f\u6469\u6258
p2531
sV600515.ss
p2532
V\u6d77\u5c9b\u5efa\u8bbe
p2533
sV600387.ss
p2534
V\u6d77\u8d8a\u80a1\u4efd
p2535
sV002508.sz
p2536
V\u8001\u677f\u7535\u5668
p2537
sV002395.sz
p2538
V\u53cc\u8c61\u80a1\u4efd
p2539
sV600501.ss
p2540
V\u822a\u5929\u6668\u5149
p2541
sV002327.sz
p2542
V\u5bcc\u5b89\u5a1c
p2543
sV002575.sz
p2544
V\u7fa4\u5174\u73a9\u5177
p2545
sV200468.sz
p2546
V\u5b81\u901a\u4fe1B
p2547
sV000802.sz
p2548
V\u5317\u4eac\u65c5\u6e38
p2549
sV600563.ss
p2550
V\u6cd5\u62c9\u7535\u5b50
p2551
sV002389.sz
p2552
V\u5357\u6d0b\u79d1\u6280
p2553
sV000757.sz
p2554
V\u6d69\u7269\u80a1\u4efd
p2555
sV300156.sz
p2556
V\u5929\u7acb\u73af\u4fdd
p2557
sV300215.sz
p2558
V\u7535\u79d1\u9662
p2559
sV600897.ss
p2560
V\u53a6\u95e8\u7a7a\u6e2f
p2561
sV600359.ss
p2562
V\u65b0\u519c\u5f00\u53d1
p2563
sV300052.sz
p2564
V\u4e2d\u9752\u5b9d
p2565
sV002633.sz
p2566
V\u7533\u79d1\u80a1\u4efd
p2567
sV600460.ss
p2568
V\u58eb\u5170\u5fae
p2569
sV601518.ss
p2570
V\u5409\u6797\u9ad8\u901f
p2571
sV601777.ss
p2572
V\u529b\u5e06\u80a1\u4efd
p2573
sV600780.ss
p2574
V\u901a\u5b9d\u80fd\u6e90
p2575
sV600037.ss
p2576
V\u6b4c\u534e\u6709\u7ebf
p2577
sV300157.sz
p2578
V\u6052\u6cf0\u827e\u666e
p2579
sV000605.sz
p2580
V\u6e24\u6d77\u80a1\u4efd
p2581
sV600999.ss
p2582
V\u62db\u5546\u8bc1\u5238
p2583
sV002307.sz
p2584
V\u5317\u65b0\u8def\u6865
p2585
sV900953.ss
p2586
V\u51ef\u9a6cB
p2587
sV510030.ss
p2588
V\u4ef7\u503cETF
p2589
sV200030.sz
p2590
V\u5bcc\u5965B
p2591
sV600609.ss
p2592
V\u91d1\u676f\u6c7d\u8f66
p2593
sV002065.sz
p2594
V\u4e1c\u534e\u8f6f\u4ef6
p2595
sV600622.ss
p2596
V\u5609\u5b9d\u96c6\u56e2
p2597
sV600790.ss
p2598
V\u8f7b\u7eba\u57ce
p2599
sV600196.ss
p2600
V\u590d\u661f\u533b\u836f
p2601
sV300103.sz
p2602
V\u8fbe\u521a\u8def\u673a
p2603
sV601028.ss
p2604
V\u7389\u9f99\u80a1\u4efd
p2605
sV600590.ss
p2606
V\u6cf0\u8c6a\u79d1\u6280
p2607
sV200053.sz
p2608
V\u6df1\u57fa\u5730B
p2609
sV000812.sz
p2610
V\u9655\u897f\u91d1\u53f6
p2611
sV600718.ss
p2612
V\u4e1c\u8f6f\u96c6\u56e2
p2613
sV600235.ss
p2614
V\u6c11\u4e30\u7279\u7eb8
p2615
sV600870.ss
p2616
V\u53a6\u534e\u7535\u5b50
p2617
sV000882.sz
p2618
V\u534e\u8054\u80a1\u4efd
p2619
sV000639.sz
p2620
V\u897f\u738b\u98df\u54c1
p2621
sV601208.ss
p2622
V\u4e1c\u6750\u79d1\u6280
p2623
sV002627.sz
p2624
V\u5b9c\u660c\u4ea4\u8fd0
p2625
sV601929.ss
p2626
V\u5409\u89c6\u4f20\u5a92
p2627
sV600030.ss
p2628
V\u4e2d\u4fe1\u8bc1\u5238
p2629
sV600770.ss
p2630
V\u7efc\u827a\u80a1\u4efd
p2631
sV600522.ss
p2632
V\u4e2d\u5929\u79d1\u6280
p2633
sV601886.ss
p2634
V\u6c5f\u6cb3\u521b\u5efa
p2635
sV600395.ss
p2636
V\u76d8\u6c5f\u80a1\u4efd
p2637
sV002015.sz
p2638
VST\u971e\u5ba2
p2639
sV300195.sz
p2640
V\u957f\u8363\u80a1\u4efd
p2641
sV002402.sz
p2642
V\u548c\u800c\u6cf0
p2643
sV002208.sz
p2644
V\u5408\u80a5\u57ce\u5efa
p2645
sV600839.ss
p2646
V\u56db\u5ddd\u957f\u8679
p2647
sV200761.sz
p2648
V\u672c\u94a2\u677fB
p2649
sV600594.ss
p2650
V\u76ca\u4f70\u5236\u836f
p2651
sV002274.sz
p2652
V\u534e\u660c\u5316\u5de5
p2653
sV600064.ss
p2654
V\u5357\u4eac\u9ad8\u79d1
p2655
sV000545.sz
p2656
V\u91d1\u6d66\u949b\u4e1a
p2657
sV300222.sz
p2658
V\u79d1\u5927\u667a\u80fd
p2659
sV600011.ss
p2660
V\u534e\u80fd\u56fd\u9645
p2661
sV002355.sz
p2662
V\u5174\u6c11\u94a2\u5708
p2663
sV600321.ss
p2664
V\u56fd\u680b\u5efa\u8bbe
p2665
sV002437.sz
p2666
V\u8a89\u8861\u836f\u4e1a
p2667
sV002557.sz
p2668
V\u6d3d\u6d3d\u98df\u54c1
p2669
sV000965.sz
p2670
V\u5929\u4fdd\u57fa\u5efa
p2671
sV300261.sz
p2672
V\u96c5\u672c\u5316\u5b66
p2673
sV600099.ss
p2674
V\u6797\u6d77\u80a1\u4efd
p2675
sV600227.ss
p2676
V\u8d64\u5929\u5316
p2677
sV200012.sz
p2678
V\u5357\u73bbB
p2679
sV300065.sz
p2680
V\u6d77\u5170\u4fe1
p2681
sV002454.sz
p2682
V\u677e\u829d\u80a1\u4efd
p2683
sV002288.sz
p2684
V\u8d85\u534e\u79d1\u6280
p2685
sV002197.sz
p2686
V\u8bc1\u901a\u7535\u5b50
p2687
sV300192.sz
p2688
V\u79d1\u65af\u4f0d\u5fb7
p2689
sV002052.sz
p2690
V\u540c\u6d32\u7535\u5b50
p2691
sV300002.sz
p2692
V\u795e\u5dde\u6cf0\u5cb3
p2693
sV601558.ss
p2694
V\u534e\u9510\u98ce\u7535
p2695
sV000007.sz
p2696
V\u96f6\u4e03\u80a1\u4efd
p2697
sV000018.sz
p2698
V\u4e2d\u51a0A
p2699
sV510300.ss
p2700
V300ETF
p2701
sV002239.sz
p2702
V\u91d1\u98de\u8fbe
p2703
sV000663.sz
p2704
V\u6c38\u5b89\u6797\u4e1a
p2705
sV300324.sz
p2706
V\u65cb\u6781\u4fe1\u606f
p2707
sV600060.ss
p2708
V\u6d77\u4fe1\u7535\u5668
p2709
sV002535.sz
p2710
V\u6797\u5dde\u91cd\u673a
p2711
sV510270.ss
p2712
V\u56fd\u4f01ETF
p2713
sV159910.sz
p2714
V\u6df1F120
p2715
sV000541.sz
p2716
V\u4f5b\u5c71\u7167\u660e
p2717
sV002401.sz
p2718
V\u4e2d\u6d77\u79d1\u6280
p2719
sV600857.ss
p2720
V\u5de5\u5927\u9996\u521b
p2721
sV600015.ss
p2722
V\u534e\u590f\u94f6\u884c
p2723
sV000005.sz
p2724
V\u4e16\u7eaa\u661f\u6e90
p2725
sV600287.ss
p2726
V\u6c5f\u82cf\u821c\u5929
p2727
sV002527.sz
p2728
V\u65b0\u65f6\u8fbe
p2729
sV000858.sz
p2730
V\u4e94\u7cae\u6db2
p2731
sV300293.sz
p2732
V\u84dd\u82f1\u88c5\u5907
p2733
sV600710.ss
p2734
V\u5e38\u6797\u80a1\u4efd
p2735
sV600820.ss
p2736
V\u96a7\u9053\u80a1\u4efd
p2737
sV601268.ss
p2738
V*ST\u4e8c\u91cd
p2739
sV000513.sz
p2740
V\u4e3d\u73e0\u96c6\u56e2
p2741
sV000019.sz
p2742
V\u6df1\u6df1\u5b9dA
p2743
sV002102.sz
p2744
V\u51a0\u798f\u5bb6\u7528
p2745
sV600050.ss
p2746
V\u4e2d\u56fd\u8054\u901a
p2747
sV600889.ss
p2748
V\u5357\u4eac\u5316\u7ea4
p2749
sV002387.sz
p2750
V\u9ed1\u725b\u98df\u54c1
p2751
sV600805.ss
p2752
V\u60a6\u8fbe\u6295\u8d44
p2753
sV300130.sz
p2754
V\u65b0\u56fd\u90fd
p2755
sV002512.sz
p2756
V\u8fbe\u534e\u667a\u80fd
p2757
sV000651.sz
p2758
V\u683c\u529b\u7535\u5668
p2759
sV600565.ss
p2760
V\u8fea\u9a6c\u80a1\u4efd
p2761
sV600586.ss
p2762
V\u91d1\u6676\u79d1\u6280
p2763
sV150020.sz
p2764
V\u6c47\u5229A
p2765
sV600110.ss
p2766
V\u4e2d\u79d1\u82f1\u534e
p2767
sV600573.ss
p2768
V\u60e0\u6cc9\u5564\u9152
p2769
sV002249.sz
p2770
V\u5927\u6d0b\u7535\u673a
p2771
sV000519.sz
p2772
V\u6c5f\u5357\u7ea2\u7bad
p2773
sV002571.sz
p2774
V\u5fb7\u529b\u80a1\u4efd
p2775
sV600744.ss
p2776
V\u534e\u94f6\u7535\u529b
p2777
sV002464.sz
p2778
V\u91d1\u5229\u79d1\u6280
p2779
sV000959.sz
p2780
V\u9996\u94a2\u80a1\u4efd
p2781
sV000671.sz
p2782
V\u9633\u5149\u57ce
p2783
sV000786.sz
p2784
V\u5317\u65b0\u5efa\u6750
p2785
sV300083.sz
p2786
V\u52b2\u80dc\u80a1\u4efd
p2787
sV900920.ss
p2788
V\u4e0a\u67f4B\u80a1
p2789
sV600265.ss
p2790
V*ST\u666f\u8c37
p2791
sV300248.sz
p2792
V\u65b0\u5f00\u666e
p2793
sV600801.ss
p2794
V\u534e\u65b0\u6c34\u6ce5
p2795
sV002040.sz
p2796
V\u5357\u4eac\u6e2f
p2797
sV300116.sz
p2798
V\u575a\u745e\u6d88\u9632
p2799
sV002635.sz
p2800
V\u5b89\u6d01\u79d1\u6280
p2801
sV000655.sz
p2802
V\u91d1\u5cad\u77ff\u4e1a
p2803
sV002095.sz
p2804
V\u751f\u610f\u5b9d
p2805
sV002342.sz
p2806
V\u5de8\u529b\u7d22\u5177
p2807
sV600528.ss
p2808
V\u4e2d\u94c1\u4e8c\u5c40
p2809
sV510130.ss
p2810
V\u4e2d\u76d8ETF
p2811
sV600072.ss
p2812
V\u94a2\u6784\u5de5\u7a0b
p2813
sV002159.sz
p2814
V\u4e09\u7279\u7d22\u9053
p2815
sV600823.ss
p2816
V\u4e16\u8302\u80a1\u4efd
p2817
sV000758.sz
p2818
V\u4e2d\u8272\u80a1\u4efd
p2819
sV600871.ss
p2820
V\u4eea\u5f81\u5316\u7ea4
p2821
sV002553.sz
p2822
V\u5357\u65b9\u8f74\u627f
p2823
sV600577.ss
p2824
V\u7cbe\u8fbe\u80a1\u4efd
p2825
sV000687.sz
p2826
V\u6052\u5929\u5929\u9e45
p2827
sV600832.ss
p2828
V\u4e1c\u65b9\u660e\u73e0
p2829
sV002678.sz
p2830
V\u73e0\u6c5f\u94a2\u7434
p2831
sV600740.ss
p2832
V\u5c71\u897f\u7126\u5316
p2833
sV600005.ss
p2834
V\u6b66\u94a2\u80a1\u4efd
p2835
sV000554.sz
p2836
V\u6cf0\u5c71\u77f3\u6cb9
p2837
sV600757.ss
p2838
V\u957f\u6c5f\u4f20\u5a92
p2839
sV600677.ss
p2840
V\u822a\u5929\u901a\u4fe1
p2841
sV600352.ss
p2842
V\u6d59\u6c5f\u9f99\u76db
p2843
sV200725.sz
p2844
V\u4eac\u4e1c\u65b9B
p2845
sV600660.ss
p2846
V\u798f\u8000\u73bb\u7483
p2847
sV200019.sz
p2848
V\u6df1\u6df1\u5b9dB
p2849
sV000573.sz
p2850
V\u7ca4\u5b8f\u8fdcA
p2851
sV600642.ss
p2852
V\u7533\u80fd\u80a1\u4efd
p2853
sV000595.sz
p2854
V\u897f\u5317\u8f74\u627f
p2855
sV300228.sz
p2856
V\u5bcc\u745e\u7279\u88c5
p2857
sV300009.sz
p2858
V\u5b89\u79d1\u751f\u7269
p2859
sV600703.ss
p2860
V\u4e09\u5b89\u5149\u7535
p2861
sV300150.sz
p2862
V\u4e16\u7eaa\u745e\u5c14
p2863
sV002685.sz
p2864
V\u534e\u4e1c\u91cd\u673a
p2865
sV600705.ss
p2866
V\u4e2d\u822a\u6295\u8d44
p2867
sV002334.sz
p2868
V\u82f1\u5a01\u817e
p2869
sV002137.sz
p2870
V\u5b9e\u76ca\u8fbe
p2871
sV002176.sz
p2872
V\u6c5f\u7279\u7535\u673a
p2873
sV900932.ss
p2874
V\u9646\u5bb6B\u80a1
p2875
sV000413.sz
p2876
V\u4e1c\u65ed\u5149\u7535
p2877
sV600767.ss
p2878
V\u8fd0\u76db\u5b9e\u4e1a
p2879
sV002182.sz
p2880
V\u4e91\u6d77\u91d1\u5c5e
p2881
sV000021.sz
p2882
V\u957f\u57ce\u5f00\u53d1
p2883
sV600836.ss
p2884
V\u754c\u9f99\u5b9e\u4e1a
p2885
sV002048.sz
p2886
V\u5b81\u6ce2\u534e\u7fd4
p2887
sV300134.sz
p2888
V\u5927\u5bcc\u79d1\u6280
p2889
sV002056.sz
p2890
V\u6a2a\u5e97\u4e1c\u78c1
p2891
sV300173.sz
p2892
V\u677e\u5fb7\u80a1\u4efd
p2893
sV600125.ss
p2894
V\u94c1\u9f99\u7269\u6d41
p2895
sV300020.sz
p2896
V\u94f6\u6c5f\u80a1\u4efd
p2897
sV002641.sz
p2898
V\u6c38\u9ad8\u80a1\u4efd
p2899
sV600881.ss
p2900
V\u4e9a\u6cf0\u96c6\u56e2
p2901
sV600658.ss
p2902
V\u7535\u5b50\u57ce
p2903
sV600530.ss
p2904
V\u4ea4\u5927\u6602\u7acb
p2905
sV184690.sz
p2906
V\u57fa\u91d1\u540c\u76ca
p2907
sV002440.sz
p2908
V\u95f0\u571f\u80a1\u4efd
p2909
sV600251.ss
p2910
V\u51a0\u519c\u80a1\u4efd
p2911
sV601789.ss
p2912
V\u5b81\u6ce2\u5efa\u5de5
p2913
sV601992.ss
p2914
V\u91d1\u9685\u80a1\u4efd
p2915
sV000820.sz
p2916
V\u91d1\u57ce\u80a1\u4efd
p2917
sV600348.ss
p2918
V\u9633\u6cc9\u7164\u4e1a
p2919
sV000667.sz
p2920
V\u7f8e\u597d\u96c6\u56e2
p2921
sV000979.sz
p2922
V\u4e2d\u5f18\u80a1\u4efd
p2923
sV600603.ss
p2924
V\u5927\u6d32\u5174\u4e1a
p2925
sV001896.sz
p2926
V\u8c6b\u80fd\u63a7\u80a1
p2927
sV600218.ss
p2928
V\u5168\u67f4\u52a8\u529b
p2929
sV002014.sz
p2930
V\u6c38\u65b0\u80a1\u4efd
p2931
sV000601.sz
p2932
V\u97f6\u80fd\u80a1\u4efd
p2933
sV000877.sz
p2934
V\u5929\u5c71\u80a1\u4efd
p2935
sV002502.sz
p2936
V\u9a85\u5a01\u80a1\u4efd
p2937
sV000048.sz
p2938
V\u5eb7\u8fbe\u5c14
p2939
sV300205.sz
p2940
V\u5929\u55bb\u4fe1\u606f
p2941
sV600283.ss
p2942
V\u94b1\u6c5f\u6c34\u5229
p2943
sV002071.sz
p2944
V\u6c5f\u82cf\u5b8f\u5b9d
p2945
sV300188.sz
p2946
V\u7f8e\u4e9a\u67cf\u79d1
p2947
sV002259.sz
p2948
V\u5347\u8fbe\u6797\u4e1a
p2949
sV601288.ss
p2950
V\u519c\u4e1a\u94f6\u884c
p2951
sV002116.sz
p2952
V\u4e2d\u56fd\u6d77\u8bda
p2953
sV002560.sz
p2954
V\u901a\u8fbe\u80a1\u4efd
p2955
sV002224.sz
p2956
V\u4e09\u529b\u58eb
p2957
sV000952.sz
p2958
V\u5e7f\u6d4e\u836f\u4e1a
p2959
sV600753.ss
p2960
V\u4e1c\u65b9\u94f6\u661f
p2961
sV600233.ss
p2962
V\u5927\u6768\u521b\u4e16
p2963
sV000886.sz
p2964
V\u6d77\u5357\u9ad8\u901f
p2965
sV002038.sz
p2966
V\u53cc\u9e6d\u836f\u4e1a
p2967
sV600469.ss
p2968
V\u98ce\u795e\u80a1\u4efd
p2969
sV600173.ss
p2970
V\u5367\u9f99\u5730\u4ea7
p2971
sV600626.ss
p2972
V\u7533\u8fbe\u80a1\u4efd
p2973
sV603366.ss
p2974
V\u65e5\u51fa\u4e1c\u65b9
p2975
sV300015.sz
p2976
V\u7231\u5c14\u773c\u79d1
p2977
sV600151.ss
p2978
V\u822a\u5929\u673a\u7535
p2979
sV300323.sz
p2980
V\u534e\u707f\u5149\u7535
p2981
sV600724.ss
p2982
V\u5b81\u6ce2\u5bcc\u8fbe
p2983
sV002025.sz
p2984
V\u822a\u5929\u7535\u5668
p2985
sV603003.ss
p2986
V\u9f99\u5b87\u71c3\u6cb9
p2987
sV000897.sz
p2988
V\u6d25\u6ee8\u53d1\u5c55
p2989
sV002430.sz
p2990
V\u676d\u6c27\u80a1\u4efd
p2991
sV002235.sz
p2992
V\u5b89\u59ae\u80a1\u4efd
p2993
sV000631.sz
p2994
V\u987a\u53d1\u6052\u4e1a
p2995
sV150069.sz
p2996
V\u53cc\u529bA
p2997
sV300025.sz
p2998
V\u534e\u661f\u521b\u4e1a
p2999
sV600526.ss
p3000
V\u83f2\u8fbe\u73af\u4fdd
p3001
sV300267.sz
p3002
V\u5c14\u5eb7\u5236\u836f
p3003
sV600759.ss
p3004
V\u6b63\u548c\u80a1\u4efd
p3005
sV002676.sz
p3006
V\u987a\u5a01\u80a1\u4efd
p3007
sV200022.sz
p3008
V\u6df1\u8d64\u6e7eB
p3009
sV159922.sz
p3010
V500ETF
p3011
sV002365.sz
p3012
V\u6c38\u5b89\u836f\u4e1a
p3013
sV000089.sz
p3014
V\u6df1\u5733\u673a\u573a
p3015
sV300180.sz
p3016
V\u534e\u5cf0\u8d85\u7ea4
p3017
sV600117.ss
p3018
V\u897f\u5b81\u7279\u94a2
p3019
sV002639.sz
p3020
V\u96ea\u4eba\u80a1\u4efd
p3021
sV002037.sz
p3022
V\u4e45\u8054\u53d1\u5c55
p3023
sV002091.sz
p3024
V\u6c5f\u82cf\u56fd\u6cf0
p3025
sV300311.sz
p3026
V\u4efb\u5b50\u884c
p3027
sV002693.sz
p3028
V\u53cc\u6210\u836f\u4e1a
p3029
sV300217.sz
p3030
V\u4e1c\u65b9\u7535\u70ed
p3031
sV002129.sz
p3032
V\u4e2d\u73af\u80a1\u4efd
p3033
sV000685.sz
p3034
V\u4e2d\u5c71\u516c\u7528
p3035
sV002263.sz
p3036
V\u5927\u4e1c\u5357
p3037
sV900906.ss
p3038
V\u4e2d\u7ebaB\u80a1
p3039
sV601699.ss
p3040
V\u6f5e\u5b89\u73af\u80fd
p3041
sV300112.sz
p3042
V\u4e07\u8baf\u81ea\u63a7
p3043
sV300161.sz
p3044
V\u534e\u4e2d\u6570\u63a7
p3045
sV000798.sz
p3046
V\u4e2d\u6c34\u6e14\u4e1a
p3047
sV300341.sz
p3048
V\u9ea6\u8fea\u7535\u6c14
p3049
sV600155.ss
p3050
V\u5b9d\u7855\u80a1\u4efd
p3051
sV000750.sz
p3052
V\u56fd\u6d77\u8bc1\u5238
p3053
sV002668.sz
p3054
V\u5965\u9a6c\u7535\u5668
p3055
sV159921.sz
p3056
V\u4e2d\u5c0f\u7b49\u6743
p3057
sV002232.sz
p3058
V\u542f\u660e\u4fe1\u606f
p3059
sV002021.sz
p3060
V\u4e2d\u6377\u80a1\u4efd
p3061
sV600188.ss
p3062
V\u5156\u5dde\u7164\u4e1a
p3063
sV002107.sz
p3064
V\u6c83\u534e\u533b\u836f
p3065
sV601901.ss
p3066
V\u65b9\u6b63\u8bc1\u5238
p3067
sV601339.ss
p3068
V\u767e\u9686\u4e1c\u65b9
p3069
sV300287.sz
p3070
V\u98de\u5229\u4fe1
p3071
sV603000.ss
p3072
V\u4eba\u6c11\u7f51
p3073
sV000002.sz
p3074
V\u4e07\u79d1A
p3075
sV600548.ss
p3076
V\u6df1\u9ad8\u901f
p3077
sV000697.sz
p3078
V\u70bc\u77f3\u6709\u8272
p3079
sV300315.sz
p3080
V\u638c\u8da3\u79d1\u6280
p3081
sV002066.sz
p3082
V\u745e\u6cf0\u79d1\u6280
p3083
sV600981.ss
p3084
V\u6c47\u9e3f\u80a1\u4efd
p3085
sV300235.sz
p3086
V\u65b9\u76f4\u79d1\u6280
p3087
sV300145.sz
p3088
V\u5357\u65b9\u6cf5\u4e1a
p3089
sV300298.sz
p3090
V\u4e09\u8bfa\u751f\u7269
p3091
sV600213.ss
p3092
V\u4e9a\u661f\u5ba2\u8f66
p3093
sV002523.sz
p3094
V\u5929\u6865\u8d77\u91cd
p3095
sV000498.sz
p3096
V\u5c71\u4e1c\u8def\u6865
p3097
sV002383.sz
p3098
V\u5408\u4f17\u601d\u58ee
p3099
sV600288.ss
p3100
V\u5927\u6052\u79d1\u6280
p3101
sV600898.ss
p3102
V\u4e09\u8054\u5546\u793e
p3103
sV900936.ss
p3104
V\u9102\u8d44B\u80a1
p3105
sV002106.sz
p3106
V\u83b1\u5b9d\u9ad8\u79d1
p3107
sV600873.ss
p3108
V\u6885\u82b1\u96c6\u56e2
p3109
sV002133.sz
p3110
V\u5e7f\u5b87\u96c6\u56e2
p3111
sV000707.sz
p3112
V\u53cc\u73af\u79d1\u6280
p3113
sV600121.ss
p3114
V\u90d1\u5dde\u7164\u7535
p3115
sV000878.sz
p3116
V\u4e91\u5357\u94dc\u4e1a
p3117
sV000927.sz
p3118
V\u4e00\u6c7d\u590f\u5229
p3119
sV600779.ss
p3120
V\u6c34\u4e95\u574a
p3121
sV000917.sz
p3122
V\u7535\u5e7f\u4f20\u5a92
p3123
sV601106.ss
p3124
V\u4e2d\u56fd\u4e00\u91cd
p3125
sV600370.ss
p3126
V\u4e09\u623f\u5df7
p3127
sV600366.ss
p3128
V\u5b81\u6ce2\u97f5\u5347
p3129
sV002186.sz
p3130
V\u5168\u805a\u5fb7
p3131
sV600896.ss
p3132
V\u4e2d\u6d77\u6d77\u76db
p3133
sV002694.sz
p3134
V\u987e\u5730\u79d1\u6280
p3135
sV002153.sz
p3136
V\u77f3\u57fa\u4fe1\u606f
p3137
sV300087.sz
p3138
V\u8343\u94f6\u9ad8\u79d1
p3139
sV600408.ss
p3140
V\u5b89\u6cf0\u96c6\u56e2
p3141
sV200018.sz
p3142
V*ST\u4e2d\u51a0B
p3143
sV300328.sz
p3144
V\u5b9c\u5b89\u79d1\u6280
p3145
sV600340.ss
p3146
V\u534e\u590f\u5e78\u798f
p3147
sV000969.sz
p3148
V\u5b89\u6cf0\u79d1\u6280
p3149
sV300210.sz
p3150
V\u68ee\u8fdc\u80a1\u4efd
p3151
sV600358.ss
p3152
V*ST\u8054\u5408
p3153
sV002110.sz
p3154
V\u4e09\u94a2\u95fd\u5149
p3155
sV200413.sz
p3156
V\u4e1c\u65edB
p3157
sV000011.sz
p3158
V\u6df1\u7269\u4e1aA
p3159
sV300090.sz
p3160
V\u76db\u8fd0\u80a1\u4efd
p3161
sV002503.sz
p3162
V\u641c\u4e8e\u7279
p3163
sV600810.ss
p3164
V\u795e\u9a6c\u80a1\u4efd
p3165
sV002075.sz
p3166
V\u6c99\u94a2\u80a1\u4efd
p3167
sV002331.sz
p3168
V\u7696\u901a\u79d1\u6280
p3169
sV600187.ss
p3170
V\u56fd\u4e2d\u6c34\u52a1
p3171
sV002378.sz
p3172
V\u7ae0\u6e90\u94a8\u4e1a
p3173
sV300059.sz
p3174
V\u4e1c\u65b9\u8d22\u5bcc
p3175
sV159920.sz
p3176
V\u6052\u751fETF
p3177
sV000525.sz
p3178
V\u7ea2\u592a\u9633
p3179
sV184701.sz
p3180
V\u57fa\u91d1\u666f\u798f
p3181
sV601166.ss
p3182
V\u5174\u4e1a\u94f6\u884c
p3183
sV002003.sz
p3184
V\u4f1f\u661f\u80a1\u4efd
p3185
sV002214.sz
p3186
V\u5927\u7acb\u79d1\u6280
p3187
sV600308.ss
p3188
V\u534e\u6cf0\u80a1\u4efd
p3189
sV600084.ss
p3190
V\u4e2d\u8461\u80a1\u4efd
p3191
sV600129.ss
p3192
V\u592a\u6781\u96c6\u56e2
p3193
sV000939.sz
p3194
V\u51ef\u8fea\u7535\u529b
p3195
sV000962.sz
p3196
V\u4e1c\u65b9\u94bd\u4e1a
p3197
sV300327.sz
p3198
V\u4e2d\u9896\u7535\u5b50
p3199
sV600673.ss
p3200
V\u4e1c\u9633\u5149\u94dd
p3201
sV002068.sz
p3202
V\u9ed1\u732b\u80a1\u4efd
p3203
sV002349.sz
p3204
V\u7cbe\u534e\u5236\u836f
p3205
sV000099.sz
p3206
V\u4e2d\u4fe1\u6d77\u76f4
p3207
sV601928.ss
p3208
V\u51e4\u51f0\u4f20\u5a92
p3209
sV200037.sz
p3210
V\u6df1\u5357\u7535B
p3211
sV000700.sz
p3212
V\u6a21\u5851\u79d1\u6280
p3213
sV300297.sz
p3214
V\u84dd\u76fe\u80a1\u4efd
p3215
sV300330.sz
p3216
V\u534e\u8679\u8ba1\u901a
p3217
sV600183.ss
p3218
V\u751f\u76ca\u79d1\u6280
p3219
sV510660.ss
p3220
V\u533b\u836f\u884c\u4e1a
p3221
sV600319.ss
p3222
V*ST\u4e9a\u661f
p3223
sV000100.sz
p3224
VTCL\u96c6\u56e2
p3225
sV300104.sz
p3226
V\u4e50\u89c6\u7f51
p3227
sV000418.sz
p3228
V\u5c0f\u5929\u9e45A
p3229
sV000780.sz
p3230
V\u5e73\u5e84\u80fd\u6e90
p3231
sV600118.ss
p3232
V\u4e2d\u56fd\u536b\u661f
p3233
sV600416.ss
p3234
V\u6e58\u7535\u80a1\u4efd
p3235
sV002202.sz
p3236
V\u91d1\u98ce\u79d1\u6280
p3237
sV000955.sz
p3238
V\u6b23\u9f99\u63a7\u80a1
p3239
sV002270.sz
p3240
V\u6cd5\u56e0\u6570\u63a7
p3241
sV002036.sz
p3242
V\u5b9c\u79d1\u79d1\u6280
p3243
sV300190.sz
p3244
V\u7ef4\u5c14\u5229
p3245
sV600680.ss
p3246
V\u4e0a\u6d77\u666e\u5929
p3247
sV000025.sz
p3248
V\u7279\u529bA
p3249
sV300075.sz
p3250
V\u6570\u5b57\u653f\u901a
p3251
sV002317.sz
p3252
V\u4f17\u751f\u836f\u4e1a
p3253
sV600132.ss
p3254
V\u91cd\u5e86\u5564\u9152
p3255
sV601390.ss
p3256
V\u4e2d\u56fd\u4e2d\u94c1
p3257
sV600653.ss
p3258
V\u7533\u534e\u63a7\u80a1
p3259
sV300142.sz
p3260
V\u6c83\u68ee\u751f\u7269
p3261
sV300259.sz
p3262
V\u65b0\u5929\u79d1\u6280
p3263
sV600446.ss
p3264
V\u91d1\u8bc1\u80a1\u4efd
p3265
sV000760.sz
p3266
V\u535a\u76c8\u6295\u8d44
p3267
sV002236.sz
p3268
V\u5927\u534e\u80a1\u4efd
p3269
sV601798.ss
p3270
V\u84dd\u79d1\u9ad8\u65b0
p3271
sV002587.sz
p3272
V\u5965\u62d3\u7535\u5b50
p3273
sV500003.ss
p3274
V\u57fa\u91d1\u5b89\u4fe1
p3275
sV002651.sz
p3276
V\u5229\u541b\u80a1\u4efd
p3277
sV600888.ss
p3278
V\u65b0\u7586\u4f17\u548c
p3279
sV000919.sz
p3280
V\u91d1\u9675\u836f\u4e1a
p3281
sV600368.ss
p3282
V\u4e94\u6d32\u4ea4\u901a
p3283
sV002283.sz
p3284
V\u5929\u6da6\u66f2\u8f74
p3285
sV000617.sz
p3286
V*ST\u6d4e\u67f4
p3287
sV600138.ss
p3288
V\u4e2d\u9752\u65c5
p3289
sV600824.ss
p3290
V\u76ca\u6c11\u96c6\u56e2
p3291
sV300005.sz
p3292
V\u63a2\u8def\u8005
p3293
sV000973.sz
p3294
V\u4f5b\u5851\u79d1\u6280
p3295
sV002550.sz
p3296
V\u5343\u7ea2\u5236\u836f
p3297
sV603333.ss
p3298
V\u660e\u661f\u7535\u7f06
p3299
sV510610.ss
p3300
V\u80fd\u6e90\u884c\u4e1a
p3301
sV002127.sz
p3302
V*ST\u65b0\u6c11
p3303
sV600781.ss
p3304
V\u4e0a\u6d77\u8f85\u4ec1
p3305
sV900908.ss
p3306
V\u6c2f\u78b1B\u80a1
p3307
sV002190.sz
p3308
V\u6210\u98de\u96c6\u6210
p3309
sV600177.ss
p3310
V\u96c5\u6208\u5c14
p3311
sV601113.ss
p3312
V\u534e\u9f0e\u80a1\u4efd
p3313
sV600619.ss
p3314
V\u6d77\u7acb\u80a1\u4efd
p3315
sV000596.sz
p3316
V\u53e4\u4e95\u8d21\u9152
p3317
sV002670.sz
p3318
V\u534e\u58f0\u80a1\u4efd
p3319
sV002210.sz
p3320
V\u98de\u9a6c\u56fd\u9645
p3321
sV300120.sz
p3322
V\u7ecf\u7eac\u7535\u6750
p3323
sV300169.sz
p3324
V\u5929\u665f\u65b0\u6750
p3325
sV002583.sz
p3326
V\u6d77\u80fd\u8fbe
p3327
sV601678.ss
p3328
V\u6ee8\u5316\u80a1\u4efd
p3329
sV300187.sz
p3330
V\u6c38\u6e05\u73af\u4fdd
p3331
sV600339.ss
p3332
V\u5929\u5229\u9ad8\u65b0
p3333
sV601058.ss
p3334
V\u8d5b\u8f6e\u80a1\u4efd
p3335
sV600096.ss
p3336
V\u4e91\u5929\u5316
p3337
sV600692.ss
p3338
V\u4e9a\u901a\u80a1\u4efd
p3339
sV000592.sz
p3340
V\u4e2d\u798f\u5b9e\u4e1a
p3341
sV002287.sz
p3342
V\u5947\u6b63\u85cf\u836f
p3343
sV002083.sz
p3344
V\u5b5a\u65e5\u80a1\u4efd
p3345
sV002493.sz
p3346
V\u8363\u76db\u77f3\u5316
p3347
sV600732.ss
p3348
V\u4e0a\u6d77\u65b0\u6885
p3349
sV000026.sz
p3350
V\u98de\u4e9a\u8fbeA
p3351
sV300165.sz
p3352
V\u5929\u745e\u4eea\u5668
p3353
sV000635.sz
p3354
V\u82f1\u529b\u7279
p3355
sV601616.ss
p3356
V\u5e7f\u7535\u7535\u6c14
p3357
sV002690.sz
p3358
V\u7f8e\u4e9a\u5149\u7535
p3359
sV600761.ss
p3360
V\u5b89\u5fbd\u5408\u529b
p3361
sV002672.sz
p3362
V\u4e1c\u6c5f\u73af\u4fdd
p3363
sV300257.sz
p3364
V\u5f00\u5c71\u80a1\u4efd
p3365
sV600333.ss
p3366
V\u957f\u6625\u71c3\u6c14
p3367
sV000735.sz
p3368
V\u7f57\u725b\u5c71
p3369
sV600261.ss
p3370
V\u9633\u5149\u7167\u660e
p3371
sV000602.sz
p3372
V\u91d1\u9a6c\u9000\u5e02
p3373
sV600426.ss
p3374
V\u534e\u9c81\u6052\u5347
p3375
sV000813.sz
p3376
V\u5929\u5c71\u7eba\u7ec7
p3377
sV600800.ss
p3378
V\u5929\u6d25\u78c1\u5361
p3379
sV002413.sz
p3380
V\u5e38\u53d1\u80a1\u4efd
p3381
sV002243.sz
p3382
V\u901a\u4ea7\u4e3d\u661f
p3383
sV200530.sz
p3384
V\u5927\u51b7B
p3385
sV002044.sz
p3386
V\u6c5f\u82cf\u4e09\u53cb
p3387
sV000929.sz
p3388
V\u5170\u5dde\u9ec4\u6cb3
p3389
sV150003.sz
p3390
V\u5efa\u4fe1\u4f18\u52bf
p3391
sV000540.sz
p3392
V\u4e2d\u5929\u57ce\u6295
p3393
sV002180.sz
p3394
V\u4e07\u529b\u8fbe
p3395
sV002489.sz
p3396
V\u6d59\u6c5f\u6c38\u5f3a
p3397
sV002417.sz
p3398
V\u4e09\u5143\u8fbe
p3399
sV600600.ss
p3400
V\u9752\u5c9b\u5564\u9152
p3401
sV000562.sz
p3402
V\u5b8f\u6e90\u8bc1\u5238
p3403
sV002422.sz
p3404
V\u79d1\u4f26\u836f\u4e1a
p3405
sV601137.ss
p3406
V\u535a\u5a01\u5408\u91d1
p3407
sV600702.ss
p3408
V\u6cb1\u724c\u820d\u5f97
p3409
sV300154.sz
p3410
V\u745e\u51cc\u80a1\u4efd
p3411
sV000333.sz
p3412
V\u7f8e\u7684\u96c6\u56e2
p3413
sV002154.sz
p3414
V\u62a5\u559c\u9e1f
p3415
sV000987.sz
p3416
V\u5e7f\u5dde\u53cb\u8c0a
p3417
sV002660.sz
p3418
V\u8302\u7855\u7535\u6e90
p3419
sV002544.sz
p3420
V\u6770\u8d5b\u79d1\u6280
p3421
sV000606.sz
p3422
V\u9752\u6d77\u660e\u80f6
p3423
sV000539.sz
p3424
V\u7ca4\u7535\u529bA
p3425
sV510290.ss
p3426
V380ETF
p3427
sV002179.sz
p3428
V\u4e2d\u822a\u5149\u7535
p3429
sV002391.sz
p3430
V\u957f\u9752\u80a1\u4efd
p3431
sV600720.ss
p3432
V\u7941\u8fde\u5c71
p3433
sV000584.sz
p3434
V\u53cb\u5229\u63a7\u80a1
p3435
sV600475.ss
p3436
V\u534e\u5149\u80a1\u4efd
p3437
sV002352.sz
p3438
V\u9f0e\u6cf0\u65b0\u6750
p3439
sV002423.sz
p3440
V\u4e2d\u539f\u7279\u94a2
p3441
sV300100.sz
p3442
V\u53cc\u6797\u80a1\u4efd
p3443
sV002411.sz
p3444
V\u4e5d\u4e5d\u4e45
p3445
sV000037.sz
p3446
V\u6df1\u5357\u7535A
p3447
sV002370.sz
p3448
V\u4e9a\u592a\u836f\u4e1a
p3449
sV200986.sz
p3450
V\u7ca4\u534e\u5305B
p3451
sV000719.sz
p3452
V\u5927\u5730\u4f20\u5a92
p3453
sV200513.sz
p3454
V\u4e3d\u73e0B
p3455
sV000951.sz
p3456
V\u4e2d\u56fd\u91cd\u6c7d
p3457
sV300225.sz
p3458
V\u91d1\u529b\u6cf0
p3459
sV002382.sz
p3460
V\u84dd\u5e06\u80a1\u4efd
p3461
sV600621.ss
p3462
V\u534e\u946b\u80a1\u4efd
p3463
sV002269.sz
p3464
V\u7f8e\u90a6\u670d\u9970
p3465
sV600000.ss
p3466
V\u6d66\u53d1\u94f6\u884c
p3467
sV510210.ss
p3468
V\u7efc\u6307ETF
p3469
sV600029.ss
p3470
V\u5357\u65b9\u822a\u7a7a
p3471
sV000622.sz
p3472
V\u6052\u7acb\u5b9e\u4e1a
p3473
sV002303.sz
p3474
V\u7f8e\u76c8\u68ee
p3475
sV600376.ss
p3476
V\u9996\u5f00\u80a1\u4efd
p3477
sV000921.sz
p3478
V\u6d77\u4fe1\u79d1\u9f99
p3479
sV603766.ss
p3480
V\u9686\u946b\u901a\u7528
p3481
sV600634.ss
p3482
VST\u6f84\u6d77
p3483
sV002644.sz
p3484
V\u4f5b\u6148\u5236\u836f
p3485
sV000693.sz
p3486
V\u534e\u6cfd\u94b4\u954d
p3487
sV002157.sz
p3488
V\u6b63\u90a6\u79d1\u6280
p3489
sV601996.ss
p3490
V\u4e30\u6797\u96c6\u56e2
p3491
sV000676.sz
p3492
V*ST\u601d\u8fbe
p3493
sV600612.ss
p3494
V\u8001\u51e4\u7965
p3495
sV600158.ss
p3496
V\u4e2d\u4f53\u4ea7\u4e1a
p3497
sV601600.ss
p3498
V\u4e2d\u56fd\u94dd\u4e1a
p3499
sV600620.ss
p3500
V\u5929\u5bb8\u80a1\u4efd
p3501
sV000063.sz
p3502
V\u4e2d\u5174\u901a\u8baf
p3503
sV600337.ss
p3504
V\u7f8e\u514b\u80a1\u4efd
p3505
sV600479.ss
p3506
V\u5343\u91d1\u836f\u4e1a
p3507
sV000863.sz
p3508
V\u4e09\u6e58\u80a1\u4efd
p3509
sV600179.ss
p3510
V\u9ed1\u5316\u80a1\u4efd
p3511
sV600292.ss
p3512
V\u4e2d\u7535\u8fdc\u8fbe
p3513
sV900924.ss
p3514
V\u4e0a\u5de5B\u80a1
p3515
sV300294.sz
p3516
V\u535a\u96c5\u751f\u7269
p3517
sV600738.ss
p3518
V\u5170\u5dde\u6c11\u767e
p3519
sV600785.ss
p3520
V\u65b0\u534e\u767e\u8d27
p3521
sV200488.sz
p3522
V\u6668\u9e23B
p3523
sV600654.ss
p3524
V\u98de\u4e50\u80a1\u4efd
p3525
sV000995.sz
p3526
V\u7687\u53f0\u9152\u4e1a
p3527
sV002194.sz
p3528
V\u6b66\u6c49\u51e1\u8c37
p3529
sV002172.sz
p3530
V\u6fb3\u6d0b\u79d1\u6280
p3531
sV600814.ss
p3532
V\u676d\u5dde\u89e3\u767e
p3533
sV002064.sz
p3534
V\u534e\u5cf0\u6c28\u7eb6
p3535
sV601117.ss
p3536
V\u4e2d\u56fd\u5316\u5b66
p3537
sV002576.sz
p3538
V\u901a\u8fbe\u52a8\u529b
p3539
sV002564.sz
p3540
V\u5f20\u5316\u673a
p3541
sV002293.sz
p3542
V\u7f57\u83b1\u5bb6\u7eba
p3543
sV000043.sz
p3544
V\u4e2d\u822a\u5730\u4ea7
p3545
sV002441.sz
p3546
V\u4f17\u4e1a\u8fbe
p3547
sV300046.sz
p3548
V\u53f0\u57fa\u80a1\u4efd
p3549
sV600616.ss
p3550
V\u91d1\u67ab\u9152\u4e1a
p3551
sV000893.sz
p3552
V\u4e1c\u51cc\u7cae\u6cb9
p3553
sV002434.sz
p3554
V\u4e07\u91cc\u626c
p3555
sV600493.ss
p3556
V\u51e4\u7af9\u7eba\u7ec7
p3557
sV600284.ss
p3558
V\u6d66\u4e1c\u5efa\u8bbe
p3559
sV600141.ss
p3560
V\u5174\u53d1\u96c6\u56e2
p3561
sV000839.sz
p3562
V\u4e2d\u4fe1\u56fd\u5b89
p3563
sV600270.ss
p3564
V\u5916\u8fd0\u53d1\u5c55
p3565
sV002089.sz
p3566
V\u65b0\u6d77\u5b9c
p3567
sV002142.sz
p3568
V\u5b81\u6ce2\u94f6\u884c
p3569
sV000731.sz
p3570
V\u56db\u5ddd\u7f8e\u4e30
p3571
sV002429.sz
p3572
V\u5146\u9a70\u80a1\u4efd
p3573
sV600895.ss
p3574
V\u5f20\u6c5f\u9ad8\u79d1
p3575
sV300290.sz
p3576
V\u8363\u79d1\u79d1\u6280
p3577
sV600806.ss
p3578
V\u6606\u660e\u673a\u5e8a
p3579
sV159901.sz
p3580
V\u6df1100ETF
p3581
sV600113.ss
p3582
V\u6d59\u6c5f\u4e1c\u65e5
p3583
sV000792.sz
p3584
V\u76d0\u6e56\u80a1\u4efd
p3585
sV300218.sz
p3586
V\u5b89\u5229\u80a1\u4efd
p3587
sV002435.sz
p3588
V\u957f\u6c5f\u6da6\u53d1
p3589
sV500005.ss
p3590
V\u57fa\u91d1\u6c49\u76db
p3591
sV002345.sz
p3592
V\u6f6e\u5b8f\u57fa
p3593
sV600316.ss
p3594
V\u6d2a\u90fd\u822a\u7a7a
p3595
sV002206.sz
p3596
V\u6d77\u5229\u5f97
p3597
sV300286.sz
p3598
V\u5b89\u79d1\u745e
p3599
sV600243.ss
p3600
V\u9752\u6d77\u534e\u9f0e
p3601
sV000056.sz
p3602
V*ST\u56fd\u5546
p3603
sV000417.sz
p3604
V\u5408\u80a5\u767e\u8d27
p3605
sV200512.sz
p3606
V\u95fd\u707f\u5764B
p3607
sV300255.sz
p3608
V\u5e38\u5c71\u836f\u4e1a
p3609
sV600419.ss
p3610
V\u5929\u6da6\u4e73\u4e1a
p3611
sV002123.sz
p3612
V\u8363\u4fe1\u80a1\u4efd
p3613
sV200625.sz
p3614
V\u957f\u5b89B
p3615
sV002546.sz
p3616
V\u65b0\u8054\u7535\u5b50
p3617
sV600604.ss
p3618
V\u5e02\u5317\u9ad8\u65b0
p3619
sV002260.sz
p3620
V\u4f0a\u7acb\u6d66
p3621
sV161813.sz
p3622
V\u94f6\u534e\u4fe1\u7528
p3623
sV300234.sz
p3624
V\u5f00\u5c14\u65b0\u6750
p3625
sV600033.ss
p3626
V\u798f\u5efa\u9ad8\u901f
p3627
sV159915.sz
p3628
V\u521b\u4e1a\u677f
p3629
sV002148.sz
p3630
V\u5317\u7eac\u901a\u4fe1
p3631
sV200045.sz
p3632
V\u6df1\u7eba\u7ec7B
p3633
sV600048.ss
p3634
V\u4fdd\u5229\u5730\u4ea7
p3635
sV002618.sz
p3636
V\u4e39\u90a6\u79d1\u6280
p3637
sV000301.sz
p3638
V\u4e1c\u65b9\u5e02\u573a
p3639
sV000935.sz
p3640
V\u56db\u5ddd\u53cc\u9a6c
p3641
sV002063.sz
p3642
V\u8fdc\u5149\u8f6f\u4ef6
p3643
sV000529.sz
p3644
V\u5e7f\u5f18\u63a7\u80a1
p3645
sV600567.ss
p3646
V\u5c71\u9e70\u7eb8\u4e1a
p3647
sV002341.sz
p3648
V\u65b0\u7eb6\u79d1\u6280
p3649
sV500009.ss
p3650
V\u57fa\u91d1\u5b89\u987a
p3651
sV600247.ss
p3652
V\u6210\u57ce\u80a1\u4efd
p3653
sV600549.ss
p3654
V\u53a6\u95e8\u94a8\u4e1a
p3655
sV000810.sz
p3656
V\u534e\u6da6\u9526\u534e
p3657
sV002328.sz
p3658
V\u65b0\u670b\u80a1\u4efd
p3659
sV002266.sz
p3660
V\u6d59\u5bcc\u63a7\u80a1
p3661
sV200024.sz
p3662
V\u62db\u5546\u5c40B
p3663
sV002313.sz
p3664
V\u65e5\u6d77\u901a\u8baf
p3665
sV002619.sz
p3666
V\u5de8\u9f99\u7ba1\u4e1a
p3667
sV300282.sz
p3668
V\u6c47\u51a0\u80a1\u4efd
p3669
sV300238.sz
p3670
V\u51a0\u660a\u751f\u7269
p3671
sV600051.ss
p3672
V\u5b81\u6ce2\u8054\u5408
p3673
sV184698.sz
p3674
V\u57fa\u91d1\u5929\u5143
p3675
sV002051.sz
p3676
V\u4e2d\u5de5\u56fd\u9645
p3677
sV000038.sz
p3678
V\u6df1\u5927\u901a
p3679
sV300131.sz
p3680
V\u82f1\u5510\u667a\u63a7
p3681
sV000151.sz
p3682
V\u4e2d\u6210\u80a1\u4efd
p3683
sV600973.ss
p3684
V\u5b9d\u80dc\u80a1\u4efd
p3685
sV300036.sz
p3686
V\u8d85\u56fe\u8f6f\u4ef6
p3687
sV200992.sz
p3688
V\u4e2d\u9c81B
p3689
sV002319.sz
p3690
V\u4e50\u901a\u80a1\u4efd
p3691
sV300307.sz
p3692
V\u6148\u661f\u80a1\u4efd
p3693
sV600163.ss
p3694
V\u798f\u5efa\u5357\u7eb8
p3695
sV002292.sz
p3696
V\u5965\u98de\u52a8\u6f2b
p3697
sV600393.ss
p3698
V\u4e1c\u534e\u5b9e\u4e1a
p3699
sV518800.ss
p3700
V\u56fd\u6cf0\u9ec4\u91d1
p3701
sV002459.sz
p3702
V*ST\u5929\u4e1a
p3703
sV300058.sz
p3704
V\u84dd\u8272\u5149\u6807
p3705
sV000566.sz
p3706
V\u6d77\u5357\u6d77\u836f
p3707
sV002686.sz
p3708
V\u4ebf\u5229\u8fbe
p3709
sV002469.sz
p3710
V\u4e09\u7ef4\u5de5\u7a0b
p3711
sV002601.sz
p3712
V\u4f70\u5229\u8054
p3713
sV000568.sz
p3714
V\u6cf8\u5dde\u8001\u7a96
p3715
sV600056.ss
p3716
V\u4e2d\u56fd\u533b\u836f
p3717
sV002055.sz
p3718
V\u5f97\u6da6\u7535\u5b50
p3719
sV300027.sz
p3720
V\u534e\u8c0a\u5144\u5f1f
p3721
sV300124.sz
p3722
V\u6c47\u5ddd\u6280\u672f
p3723
sV600513.ss
p3724
V\u8054\u73af\u836f\u4e1a
p3725
sV002321.sz
p3726
V\u534e\u82f1\u519c\u4e1a
p3727
sV601003.ss
p3728
V\u67f3\u94a2\u80a1\u4efd
p3729
sV300246.sz
p3730
V\u5b9d\u83b1\u7279
p3731
sV601199.ss
p3732
V\u6c5f\u5357\u6c34\u52a1
p3733
sV002158.sz
p3734
V\u6c49\u949f\u7cbe\u673a
p3735
sV002415.sz
p3736
V\u6d77\u5eb7\u5a01\u89c6
p3737
sV000911.sz
p3738
V\u5357\u5b81\u7cd6\u4e1a
p3739
sV002087.sz
p3740
V\u65b0\u91ce\u7eba\u7ec7
p3741
sV002398.sz
p3742
V\u5efa\u7814\u96c6\u56e2
p3743
sV600696.ss
p3744
V\u591a\u4f26\u80a1\u4efd
p3745
sV000686.sz
p3746
V\u4e1c\u5317\u8bc1\u5238
p3747
sV002498.sz
p3748
V\u6c49\u7f06\u80a1\u4efd
p3749
sV600248.ss
p3750
V\u5ef6\u957f\u5316\u5efa
p3751
sV300054.sz
p3752
V\u9f0e\u9f99\u80a1\u4efd
p3753
sV159908.sz
p3754
V\u6df1F200
p3755
sV002354.sz
p3756
V\u79d1\u5195\u6728\u4e1a
p3757
sV600808.ss
p3758
V\u9a6c\u94a2\u80a1\u4efd
p3759
sV300303.sz
p3760
V\u805a\u98de\u5149\u7535
p3761
sV600686.ss
p3762
V\u91d1\u9f99\u6c7d\u8f66
p3763
sV002664.sz
p3764
V\u4fe1\u8d28\u7535\u673a
p3765
sV600756.ss
p3766
V\u6d6a\u6f6e\u8f6f\u4ef6
p3767
sV601877.ss
p3768
V\u6b63\u6cf0\u7535\u5668
p3769
sV300061.sz
p3770
V\u5eb7\u8010\u7279
p3771
sV002451.sz
p3772
V\u6469\u6069\u7535\u6c14
p3773
sV000903.sz
p3774
V\u4e91\u5185\u52a8\u529b
p3775
sV600521.ss
p3776
V\u534e\u6d77\u836f\u4e1a
p3777
sV600201.ss
p3778
V\u91d1\u5b87\u96c6\u56e2
p3779
sV300003.sz
p3780
V\u4e50\u666e\u533b\u7597
p3781
sV600350.ss
p3782
V\u5c71\u4e1c\u9ad8\u901f
p3783
sV300229.sz
p3784
V\u62d3\u5c14\u601d
p3785
sV300030.sz
p3786
V\u9633\u666e\u533b\u7597
p3787
sV002380.sz
p3788
V\u79d1\u8fdc\u80a1\u4efd
p3789
sV300028.sz
p3790
V\u91d1\u4e9a\u79d1\u6280
p3791
sV000672.sz
p3792
V\u4e0a\u5cf0\u6c34\u6ce5
p3793
sV002671.sz
p3794
V\u9f99\u6cc9\u80a1\u4efd
p3795
sV000712.sz
p3796
V\u9526\u9f99\u80a1\u4efd
p3797
sV601958.ss
p3798
V\u91d1\u94bc\u80a1\u4efd
p3799
sV002470.sz
p3800
V\u91d1\u6b63\u5927
p3801
sV300245.sz
p3802
V\u5929\u7391\u79d1\u6280
p3803
sV300320.sz
p3804
V\u6d77\u8fbe\u80a1\u4efd
p3805
sV900915.ss
p3806
V\u4e2d\u8defB\u80a1
p3807
sV600571.ss
p3808
V\u4fe1\u96c5\u8fbe
p3809
sV000609.sz
p3810
V\u7ef5\u4e16\u80a1\u4efd
p3811
sV002578.sz
p3812
V\u95fd\u53d1\u94dd\u4e1a
p3813
sV002433.sz
p3814
V\u592a\u5b89\u5802
p3815
sV002621.sz
p3816
V\u5927\u8fde\u4e09\u5792
p3817
sV002358.sz
p3818
V\u68ee\u6e90\u7535\u6c14
p3819
sV000009.sz
p3820
V\u4e2d\u56fd\u5b9d\u5b89
p3821
sV000681.sz
p3822
V\u8fdc\u4e1c\u80a1\u4efd
p3823
sV600630.ss
p3824
V\u9f99\u5934\u80a1\u4efd
p3825
sV600866.ss
p3826
V\u661f\u6e56\u79d1\u6280
p3827
sV600769.ss
p3828
V*ST\u7965\u9f99
p3829
sV300166.sz
p3830
V\u4e1c\u65b9\u56fd\u4fe1
p3831
sV600525.ss
p3832
V\u957f\u56ed\u96c6\u56e2
p3833
sV900943.ss
p3834
V\u5f00\u5f00B\u80a1
p3835
sV002138.sz
p3836
V\u987a\u7edc\u7535\u5b50
p3837
sV002164.sz
p3838
V\u5b81\u6ce2\u4e1c\u529b
p3839
sV184721.sz
p3840
V\u57fa\u91d1\u4e30\u548c
p3841
sV002516.sz
p3842
V\u6c5f\u82cf\u65f7\u8fbe
p3843
sV002675.sz
p3844
V\u4e1c\u8bda\u751f\u5316
p3845
sV600195.ss
p3846
V\u4e2d\u7267\u80a1\u4efd
p3847
sV600985.ss
p3848
V\u96f7\u9e23\u79d1\u5316
p3849
sV600019.ss
p3850
V\u5b9d\u94a2\u80a1\u4efd
p3851
sV601633.ss
p3852
V\u957f\u57ce\u6c7d\u8f66
p3853
sV300232.sz
p3854
V\u6d32\u660e\u79d1\u6280
p3855
sV300042.sz
p3856
V\u6717\u79d1\u79d1\u6280
p3857
sV002067.sz
p3858
V\u666f\u5174\u7eb8\u4e1a
p3859
sV600555.ss
p3860
V*ST\u4e5d\u9f99
p3861
sV600748.ss
p3862
V\u4e0a\u5b9e\u53d1\u5c55
p3863
sV002108.sz
p3864
V\u6ca7\u5dde\u660e\u73e0
p3865
sV601727.ss
p3866
V\u4e0a\u6d77\u7535\u6c14
p3867
sV000537.sz
p3868
V\u5e7f\u5b87\u53d1\u5c55
p3869
sV002001.sz
p3870
V\u65b0\u548c\u6210
p3871
sV000629.sz
p3872
V\u6500\u94a2\u9492\u949b
p3873
sV600070.ss
p3874
V\u6d59\u6c5f\u5bcc\u6da6
p3875
sV600168.ss
p3876
V\u6b66\u6c49\u63a7\u80a1
p3877
sV002648.sz
p3878
V\u536b\u661f\u77f3\u5316
p3879
sV600969.ss
p3880
V\u90f4\u7535\u56fd\u9645
p3881
sV000977.sz
p3882
V\u6d6a\u6f6e\u4fe1\u606f
p3883
sV600097.ss
p3884
V\u5f00\u521b\u56fd\u9645
p3885
sV600346.ss
p3886
V\u5927\u6a61\u5851
p3887
sV002286.sz
p3888
V\u4fdd\u9f84\u5b9d
p3889
sV300277.sz
p3890
V\u6d77\u8054\u8baf
p3891
sV600221.ss
p3892
V\u6d77\u5357\u822a\u7a7a
p3893
sV600545.ss
p3894
V\u65b0\u7586\u57ce\u5efa
p3895
sV000916.sz
p3896
V\u534e\u5317\u9ad8\u901f
p3897
sV002634.sz
p3898
V\u68d2\u6770\u80a1\u4efd
p3899
sV200613.sz
p3900
V\u5927\u4e1c\u6d77B
p3901
sV600367.ss
p3902
V\u7ea2\u661f\u53d1\u5c55
p3903
sV600967.ss
p3904
V\u5317\u65b9\u521b\u4e1a
p3905
sV300279.sz
p3906
V\u548c\u6676\u79d1\u6280
p3907
sV600518.ss
p3908
V\u5eb7\u7f8e\u836f\u4e1a
p3909
sV600103.ss
p3910
V\u9752\u5c71\u7eb8\u4e1a
p3911
sV002570.sz
p3912
V\u8d1d\u56e0\u7f8e
p3913
sV300332.sz
p3914
V\u5929\u58d5\u8282\u80fd
p3915
sV000510.sz
p3916
V\u91d1\u8def\u96c6\u56e2
p3917
sV600497.ss
p3918
V\u9a70\u5b8f\u950c\u9517
p3919
sV002410.sz
p3920
V\u5e7f\u8054\u8fbe
p3921
sV300170.sz
p3922
V\u6c49\u5f97\u4fe1\u606f
p3923
sV600891.ss
p3924
V\u79cb\u6797\u96c6\u56e2
p3925
sV000547.sz
p3926
V\u95fd\u798f\u53d1A
p3927
sV600480.ss
p3928
V\u51cc\u4e91\u80a1\u4efd
p3929
sV600172.ss
p3930
V\u9ec4\u6cb3\u65cb\u98ce
p3931
sV601008.ss
p3932
V\u8fde\u4e91\u6e2f
p3933
sV600066.ss
p3934
V\u5b87\u901a\u5ba2\u8f66
p3935
sV600637.ss
p3936
V\u767e\u89c6\u901a
p3937
sV601118.ss
p3938
V\u6d77\u5357\u6a61\u80f6
p3939
sV601628.ss
p3940
V\u4e2d\u56fd\u4eba\u5bff
p3941
sV600551.ss
p3942
V\u65f6\u4ee3\u51fa\u7248
p3943
sV600854.ss
p3944
V\u6625\u5170\u80a1\u4efd
p3945
sV600628.ss
p3946
V\u65b0\u4e16\u754c
p3947
sV600698.ss
p3948
VST\u8f7b\u9a91
p3949
sV000550.sz
p3950
V\u6c5f\u94c3\u6c7d\u8f66
p3951
sV600449.ss
p3952
V\u5b81\u590f\u5efa\u6750
p3953
sV002031.sz
p3954
V\u5de8\u8f6e\u80a1\u4efd
p3955
sV000720.sz
p3956
V\u65b0\u80fd\u6cf0\u5c71
p3957
sV300338.sz
p3958
V\u5f00\u5143\u4eea\u5668
p3959
sV000572.sz
p3960
V\u6d77\u9a6c\u6c7d\u8f66
p3961
sV002504.sz
p3962
V\u4e1c\u5149\u5fae\u7535
p3963
sV600771.ss
p3964
V\u5e7f\u8a89\u8fdc
p3965
sV600106.ss
p3966
V\u91cd\u5e86\u8def\u6865
p3967
sV000599.sz
p3968
V\u9752\u5c9b\u53cc\u661f
p3969
sV002689.sz
p3970
V\u535a\u6797\u7279
p3971
sV600052.ss
p3972
V\u6d59\u6c5f\u5e7f\u53a6
p3973
sV002595.sz
p3974
V\u8c6a\u8fc8\u79d1\u6280
p3975
sV150026.sz
p3976
V\u666f\u4e30B
p3977
sV300023.sz
p3978
V\u5b9d\u5fb7\u80a1\u4efd
p3979
sV000511.sz
p3980
V\u70ef\u78b3\u65b0\u6750
p3981
sV300136.sz
p3982
V\u4fe1\u7ef4\u901a\u4fe1
p3983
sV600517.ss
p3984
V\u7f6e\u4fe1\u7535\u6c14
p3985
sV600995.ss
p3986
V\u6587\u5c71\u7535\u529b
p3987
sV600731.ss
p3988
V\u6e56\u5357\u6d77\u5229
p3989
sV600706.ss
p3990
V\u66f2\u6c5f\u6587\u65c5
p3991
sV002198.sz
p3992
V\u5609\u5e94\u5236\u836f
p3993
sV002150.sz
p3994
V\u901a\u6da6\u88c5\u5907
p3995
sV600789.ss
p3996
V\u9c81\u6297\u533b\u836f
p3997
sV300174.sz
p3998
V\u5143\u529b\u80a1\u4efd
p3999
sV600035.ss
p4000
V\u695a\u5929\u9ad8\u901f
p4001
sV600266.ss
p4002
V\u5317\u4eac\u57ce\u5efa
p4003
sV600850.ss
p4004
V\u534e\u4e1c\u7535\u8111
p4005
sV002500.sz
p4006
V\u5c71\u897f\u8bc1\u5238
p4007
sV600797.ss
p4008
V\u6d59\u5927\u7f51\u65b0
p4009
sV600211.ss
p4010
V\u897f\u85cf\u836f\u4e1a
p4011
sV000835.sz
p4012
V\u56db\u5ddd\u5723\u8fbe
p4013
sV600847.ss
p4014
V\u4e07\u91cc\u80a1\u4efd
p4015
sV000796.sz
p4016
V\u6613\u98df\u80a1\u4efd
p4017
sV000836.sz
p4018
V\u946b\u8302\u79d1\u6280
p4019
sV300155.sz
p4020
V\u5b89\u5c45\u5b9d
p4021
sV600707.ss
p4022
V\u5f69\u8679\u80a1\u4efd
p4023
sV000533.sz
p4024
V\u4e07\u5bb6\u4e50
p4025
sV002097.sz
p4026
V\u5c71\u6cb3\u667a\u80fd
p4027
sV600074.ss
p4028
V*ST\u4e2d\u8fbe
p4029
sV601988.ss
p4030
V\u4e2d\u56fd\u94f6\u884c
p4031
sV300114.sz
p4032
V\u4e2d\u822a\u7535\u6d4b
p4033
sV600380.ss
p4034
V\u5065\u5eb7\u5143
p4035
sV600237.ss
p4036
V\u94dc\u5cf0\u7535\u5b50
p4037
sV601231.ss
p4038
V\u73af\u65ed\u7535\u5b50
p4039
sV000666.sz
p4040
V\u7ecf\u7eac\u7eba\u673a
p4041
sV002185.sz
p4042
V\u534e\u5929\u79d1\u6280
p4043
sV600397.ss
p4044
V\u5b89\u6e90\u7164\u4e1a
p4045
sV002591.sz
p4046
V\u6052\u5927\u9ad8\u65b0
p4047
sV900912.ss
p4048
V\u5916\u9ad8B\u80a1
p4049
sV002298.sz
p4050
V\u946b\u9f99\u7535\u5668
p4051
sV002554.sz
p4052
V\u60e0\u535a\u666e
p4053
sV002450.sz
p4054
V\u5eb7\u5f97\u65b0
p4055
sV002485.sz
p4056
V\u5e0c\u52aa\u5c14
p4057
sV500056.ss
p4058
V\u57fa\u91d1\u79d1\u745e
p4059
sV600282.ss
p4060
V\u5357\u94a2\u80a1\u4efd
p4061
sV600751.ss
p4062
V\u5929\u6d25\u6d77\u8fd0
p4063
sV000155.sz
p4064
V\u5ddd\u5316\u80a1\u4efd
p4065
sV510630.ss
p4066
V\u6d88\u8d39\u884c\u4e1a
p4067
sV000630.sz
p4068
V\u94dc\u9675\u6709\u8272
p4069
sV600258.ss
p4070
V\u9996\u65c5\u9152\u5e97
p4071
sV000022.sz
p4072
V\u6df1\u8d64\u6e7eA
p4073
sV600598.ss
p4074
V\u5317\u5927\u8352
p4075
sV200168.sz
p4076
V\u96f7\u4f0aB
p4077
sV600269.ss
p4078
V\u8d63\u7ca4\u9ad8\u901f
p4079
sV000636.sz
p4080
V\u98ce\u534e\u9ad8\u79d1
p4081
sV002231.sz
p4082
V\u5965\u7ef4\u901a\u4fe1
p4083
sV300162.sz
p4084
V\u96f7\u66fc\u5149\u7535
p4085
sV000401.sz
p4086
V\u5180\u4e1c\u6c34\u6ce5
p4087
sV600869.ss
p4088
V\u8fdc\u4e1c\u7535\u7f06
p4089
sV000996.sz
p4090
V\u4e2d\u56fd\u4e2d\u671f
p4091
sV600326.ss
p4092
V\u897f\u85cf\u5929\u8def
p4093
sV600596.ss
p4094
V\u65b0\u5b89\u80a1\u4efd
p4095
sV600415.ss
p4096
V\u5c0f\u5546\u54c1\u57ce
p4097
sV600775.ss
p4098
V\u5357\u4eac\u718a\u732b
p4099
sV600219.ss
p4100
V\u5357\u5c71\u94dd\u4e1a
p4101
sV600403.ss
p4102
V\u5927\u6709\u80fd\u6e90
p4103
sV002519.sz
p4104
V\u94f6\u6cb3\u7535\u5b50
p4105
sV900916.ss
p4106
V\u91d1\u5c71B\u80a1
p4107
sV601601.ss
p4108
V\u4e2d\u56fd\u592a\u4fdd
p4109
sV300159.sz
p4110
V\u65b0\u7814\u80a1\u4efd
p4111
sV300125.sz
p4112
V\u6613\u4e16\u8fbe
p4113
sV600225.ss
p4114
V\u5929\u6d25\u677e\u6c5f
p4115
sV002481.sz
p4116
V\u53cc\u5854\u98df\u54c1
p4117
sV300349.sz
p4118
V\u91d1\u5361\u80a1\u4efd
p4119
sV600650.ss
p4120
V\u9526\u6c5f\u6295\u8d44
p4121
sV000869.sz
p4122
V\u5f20\u88d5A
p4123
sV002611.sz
p4124
V\u4e1c\u65b9\u7cbe\u5de5
p4125
sV000851.sz
p4126
V\u9ad8\u9e3f\u80a1\u4efd
p4127
sV600298.ss
p4128
V\u5b89\u742a\u9175\u6bcd
p4129
sV000822.sz
p4130
V*ST\u6d77\u5316
p4131
sV002456.sz
p4132
V\u6b27\u83f2\u5149
p4133
sV300263.sz
p4134
V\u9686\u534e\u8282\u80fd
p4135
sV000728.sz
p4136
V\u56fd\u5143\u8bc1\u5238
p4137
sV603008.ss
p4138
V\u559c\u4e34\u95e8
p4139
sV600793.ss
p4140
VST\u5b9c\u7eb8
p4141
sV000931.sz
p4142
V\u4e2d\u5173\u6751
p4143
sV600059.ss
p4144
V\u53e4\u8d8a\u9f99\u5c71
p4145
sV002325.sz
p4146
V\u6d2a\u6d9b\u80a1\u4efd
p4147
sV300310.sz
p4148
V\u5b9c\u901a\u4e16\u7eaa
p4149
sV600360.ss
p4150
V\u534e\u5fae\u7535\u5b50
p4151
sV002474.sz
p4152
V\u6995\u57fa\u8f6f\u4ef6
p4153
sV200596.sz
p4154
V\u53e4\u4e95\u8d21B
p4155
sV002403.sz
p4156
V\u7231\u4ed5\u8fbe
p4157
sV600091.ss
p4158
VST\u660e\u79d1
p4159
sV002697.sz
p4160
V\u7ea2\u65d7\u8fde\u9501
p4161
sV002416.sz
p4162
V\u7231\u65bd\u5fb7
p4163
sV601012.ss
p4164
V\u9686\u57fa\u80a1\u4efd
p4165
sV600727.ss
p4166
V\u9c81\u5317\u5316\u5de5
p4167
sV300050.sz
p4168
V\u4e16\u7eaa\u9f0e\u5229
p4169
sV600819.ss
p4170
V\u8000\u76ae\u73bb\u7483
p4171
sV000930.sz
p4172
V\u4e2d\u7cae\u751f\u5316
p4173
sV600712.ss
p4174
V\u5357\u5b81\u767e\u8d27
p4175
sV000046.sz
p4176
V\u6cdb\u6d77\u5efa\u8bbe
p4177
sV002245.sz
p4178
V\u6fb3\u6d0b\u987a\u660c
p4179
sV510650.ss
p4180
V\u91d1\u878d\u884c\u4e1a
p4181
sV900928.ss
p4182
V\u81ea\u4eeaB\u80a1
p4183
sV600021.ss
p4184
V\u4e0a\u6d77\u7535\u529b
p4185
sV300219.sz
p4186
V\u9e3f\u5229\u5149\u7535
p4187
sV002439.sz
p4188
V\u542f\u660e\u661f\u8fb0
p4189
sV002100.sz
p4190
V\u5929\u5eb7\u751f\u7269
p4191
sV600461.ss
p4192
V\u6d2a\u57ce\u6c34\u4e1a
p4193
sV300184.sz
p4194
V\u529b\u6e90\u4fe1\u606f
p4195
sV300241.sz
p4196
V\u745e\u4e30\u5149\u7535
p4197
sV600130.ss
p4198
V\u6ce2\u5bfc\u80a1\u4efd
p4199
sV600584.ss
p4200
V\u957f\u7535\u79d1\u6280
p4201
sV000898.sz
p4202
V*ST\u978d\u94a2
p4203
sV002218.sz
p4204
V\u62d3\u65e5\u65b0\u80fd
p4205
sV600112.ss
p4206
V\u5929\u6210\u63a7\u80a1
p4207
sV000678.sz
p4208
V\u8944\u9633\u8f74\u627f
p4209
sV300033.sz
p4210
V\u540c\u82b1\u987a
p4211
sV300139.sz
p4212
V\u798f\u661f\u6653\u7a0b
p4213
sV000915.sz
p4214
V\u5c71\u5927\u534e\u7279
p4215
sV500015.ss
p4216
V\u57fa\u91d1\u6c49\u5174
p4217
sV600716.ss
p4218
V\u51e4\u51f0\u80a1\u4efd
p4219
sV000885.sz
p4220
V\u540c\u529b\u6c34\u6ce5
p4221
sV510160.ss
p4222
V\u5c0f\u5eb7ETF
p4223
sV002625.sz
p4224
V\u9f99\u751f\u80a1\u4efd
p4225
sV300153.sz
p4226
V\u79d1\u6cf0\u7535\u6e90
p4227
sV900919.ss
p4228
V\u5927\u6c5fB\u80a1
p4229
sV300213.sz
p4230
V\u4f73\u8baf\u98de\u9e3f
p4231
sV600399.ss
p4232
V\u629a\u987a\u7279\u94a2
p4233
sV300074.sz
p4234
V\u534e\u5e73\u80a1\u4efd
p4235
sV300149.sz
p4236
V\u91cf\u5b50\u9ad8\u79d1
p4237
sV300202.sz
p4238
V\u805a\u9f99\u80a1\u4efd
p4239
sV002103.sz
p4240
V\u5e7f\u535a\u80a1\u4efd
p4241
sV002099.sz
p4242
V\u6d77\u7fd4\u836f\u4e1a
p4243
sV600262.ss
p4244
V\u5317\u65b9\u80a1\u4efd
p4245
sV000703.sz
p4246
V\u6052\u9038\u77f3\u5316
p4247
sV601669.ss
p4248
V\u4e2d\u56fd\u7535\u5efa
p4249
sV900950.ss
p4250
V\u65b0\u57ceB\u80a1
p4251
sV000831.sz
p4252
V\u4e94\u77ff\u7a00\u571f
p4253
sV000788.sz
p4254
V\u5317\u5927\u533b\u836f
p4255
sV900947.ss
p4256
V\u632f\u534eB\u80a1
p4257
sV600039.ss
p4258
V\u56db\u5ddd\u8def\u6865
p4259
sV000761.sz
p4260
V\u672c\u94a2\u677f\u6750
p4261
sV002062.sz
p4262
V\u5b8f\u6da6\u5efa\u8bbe
p4263
sV000423.sz
p4264
V\u4e1c\u963f\u963f\u80f6
p4265
sV002396.sz
p4266
V\u661f\u7f51\u9510\u6377
p4267
sV600300.ss
p4268
V\u7ef4\u7ef4\u80a1\u4efd
p4269
sV002615.sz
p4270
V\u54c8\u5c14\u65af
p4271
sV600742.ss
p4272
V\u4e00\u6c7d\u5bcc\u7ef4
p4273
sV000422.sz
p4274
V\u6e56\u5317\u5b9c\u5316
p4275
sV600153.ss
p4276
V\u5efa\u53d1\u80a1\u4efd
p4277
sV600701.ss
p4278
V\u5de5\u5927\u9ad8\u65b0
p4279
sV600963.ss
p4280
V\u5cb3\u9633\u6797\u7eb8
p4281
sV000739.sz
p4282
V\u666e\u6d1b\u836f\u4e1a
p4283
sV300196.sz
p4284
V\u957f\u6d77\u80a1\u4efd
p4285
sV600877.ss
p4286
V\u4e2d\u56fd\u5609\u9675
p4287
sV300268.sz
p4288
V\u4e07\u798f\u751f\u79d1
p4289
sV002278.sz
p4290
V\u795e\u5f00\u80a1\u4efd
p4291
sV000881.sz
p4292
V\u5927\u8fde\u56fd\u9645
p4293
sV600961.ss
p4294
V\u682a\u51b6\u96c6\u56e2
p4295
sV510180.ss
p4296
V180ETF
p4297
sV002573.sz
p4298
V\u56fd\u7535\u6e05\u65b0
p4299
sV300313.sz
p4300
V\u5929\u5c71\u751f\u7269
p4301
sV002392.sz
p4302
V\u5317\u4eac\u5229\u5c14
p4303
sV600338.ss
p4304
V\u897f\u85cf\u73e0\u5cf0
p4305
sV002223.sz
p4306
V\u9c7c\u8dc3\u533b\u7597
p4307
sV000932.sz
p4308
V\u534e\u83f1\u94a2\u94c1
p4309
sV601607.ss
p4310
V\u4e0a\u6d77\u533b\u836f
p4311
sV002364.sz
p4312
V\u4e2d\u6052\u7535\u6c14
p4313
sV000543.sz
p4314
V\u7696\u80fd\u7535\u529b
p4315
sV000058.sz
p4316
V\u6df1\u8d5b\u683c
p4317
sV002035.sz
p4318
V\u534e\u5e1d\u80a1\u4efd
p4319
sV002073.sz
p4320
V\u8f6f\u63a7\u80a1\u4efd
p4321
sV600062.ss
p4322
V\u534e\u6da6\u53cc\u9e64
p4323
sV002272.sz
p4324
V\u5ddd\u6da6\u80a1\u4efd
p4325
sV600458.ss
p4326
V\u65f6\u4ee3\u65b0\u6750
p4327
sV600322.ss
p4328
V\u5929\u623f\u53d1\u5c55
p4329
sV300326.sz
p4330
V\u51ef\u5229\u6cf0
p4331
sV600017.ss
p4332
V\u65e5\u7167\u6e2f
p4333
sV600215.ss
p4334
V\u957f\u6625\u7ecf\u5f00
p4335
sV002135.sz
p4336
V\u4e1c\u5357\u7f51\u67b6
p4337
sV900930.ss
p4338
V\u6caa\u666e\u5929B
p4339
sV000966.sz
p4340
V\u957f\u6e90\u7535\u529b
p4341
sV002565.sz
p4342
V\u4e0a\u6d77\u7eff\u65b0
p4343
sV600456.ss
p4344
V\u5b9d\u949b\u80a1\u4efd
p4345
sV002699.sz
p4346
V\u7f8e\u76db\u6587\u5316
p4347
sV002296.sz
p4348
V\u8f89\u714c\u79d1\u6280
p4349
sV000766.sz
p4350
V\u901a\u5316\u91d1\u9a6c
p4351
sV000978.sz
p4352
V\u6842\u6797\u65c5\u6e38
p4353
sV002149.sz
p4354
V\u897f\u90e8\u6750\u6599
p4355
sV600843.ss
p4356
V\u4e0a\u5de5\u7533\u8d1d
p4357
sV600735.ss
p4358
V\u65b0\u534e\u9526
p4359
sV002362.sz
p4360
V\u6c49\u738b\u79d1\u6280
p4361
sV601866.ss
p4362
V\u4e2d\u6d77\u96c6\u8fd0
p4363
sV300041.sz
p4364
V\u56de\u5929\u80f6\u4e1a
p4365
sV601398.ss
p4366
V\u5de5\u5546\u94f6\u884c
p4367
sV000563.sz
p4368
V\u9655\u56fd\u6295A
p4369
sV300084.sz
p4370
V\u6d77\u9ed8\u79d1\u6280
p4371
sV002059.sz
p4372
V\u4e91\u5357\u65c5\u6e38
p4373
sV002533.sz
p4374
V\u91d1\u676f\u7535\u5de5
p4375
sV002013.sz
p4376
V\u4e2d\u822a\u673a\u7535
p4377
sV002255.sz
p4378
V\u6d77\u9646\u91cd\u5de5
p4379
sV002047.sz
p4380
V\u5b9d\u9e70\u80a1\u4efd
p4381
sV600345.ss
p4382
V\u957f\u6c5f\u901a\u4fe1
p4383
sV601965.ss
p4384
V\u4e2d\u56fd\u6c7d\u7814
p4385
sV159924.sz
p4386
V300\u7b49\u6743
p4387
sV002339.sz
p4388
V\u79ef\u6210\u7535\u5b50
p4389
sV000736.sz
p4390
V\u4e2d\u623f\u5730\u4ea7
p4391
sV600114.ss
p4392
V\u4e1c\u7766\u80a1\u4efd
p4393
sV000657.sz
p4394
V\u4e2d\u94a8\u9ad8\u65b0
p4395
sV600189.ss
p4396
V\u5409\u6797\u68ee\u5de5
p4397
sV000040.sz
p4398
V\u5b9d\u5b89\u5730\u4ea7
p4399
sV002549.sz
p4400
V\u51ef\u7f8e\u7279\u6c14
p4401
sV002104.sz
p4402
V\u6052\u5b9d\u80a1\u4efd
p4403
sV000783.sz
p4404
V\u957f\u6c5f\u8bc1\u5238
p4405
sV300128.sz
p4406
V\u9526\u5bcc\u65b0\u6750
p4407
sV002384.sz
p4408
V\u4e1c\u5c71\u7cbe\u5bc6
p4409
sV900949.ss
p4410
V\u4e1c\u7535B\u80a1
p4411
sV002637.sz
p4412
V\u8d5e\u5b87\u79d1\u6280
p4413
sV601099.ss
p4414
V\u592a\u5e73\u6d0b
p4415
sV002462.sz
p4416
V\u5609\u4e8b\u5802
p4417
sV002119.sz
p4418
V\u5eb7\u5f3a\u7535\u5b50
p4419
sV600575.ss
p4420
V\u829c\u6e56\u6e2f
p4421
sV000800.sz
p4422
V\u4e00\u6c7d\u8f7f\u8f66
p4423
sV510410.ss
p4424
V\u8d44\u6e90ETF
p4425
sV002308.sz
p4426
V\u5a01\u521b\u80a1\u4efd
p4427
sV000600.sz
p4428
V\u5efa\u6295\u80fd\u6e90
p4429
sV300356.sz
p4430
V\u5149\u4e00\u79d1\u6280
p4431
sV510050.ss
p4432
V50ETF
p4433
sV300035.sz
p4434
V\u4e2d\u79d1\u7535\u6c14
p4435
sV002669.sz
p4436
V\u5eb7\u8fbe\u65b0\u6750
p4437
sV000732.sz
p4438
V\u6cf0\u79be\u96c6\u56e2
p4439
sV002237.sz
p4440
V\u6052\u90a6\u80a1\u4efd
p4441
sV900926.ss
p4442
V\u5b9d\u4fe1B
p4443
sV600592.ss
p4444
V\u9f99\u6eaa\u80a1\u4efd
p4445
sV600159.ss
p4446
V\u5927\u9f99\u5730\u4ea7
p4447
sV600191.ss
p4448
V\u534e\u8d44\u5b9e\u4e1a
p4449
sV002076.sz
p4450
V\u96ea\u83b1\u7279
p4451
sV000787.sz
p4452
V*ST\u521b\u667a
p4453
sV600635.ss
p4454
V\u5927\u4f17\u516c\u7528
p4455
sV601599.ss
p4456
V\u9e7f\u6e2f\u79d1\u6280
p4457
sV600185.ss
p4458
V\u683c\u529b\u5730\u4ea7
p4459
sV000677.sz
p4460
V\u6052\u5929\u6d77\u9f99
p4461
sV300110.sz
p4462
V\u534e\u4ec1\u836f\u4e1a
p4463
sV200429.sz
p4464
V\u7ca4\u9ad8\u901fB
p4465
sV600583.ss
p4466
V\u6d77\u6cb9\u5de5\u7a0b
p4467
sV300106.sz
p4468
V\u897f\u90e8\u7267\u4e1a
p4469
sV600879.ss
p4470
V\u822a\u5929\u7535\u5b50
p4471
sV600240.ss
p4472
V\u534e\u4e1a\u5730\u4ea7
p4473
sV300198.sz
p4474
V\u7eb3\u5ddd\u80a1\u4efd
p4475
sV002174.sz
p4476
V\u6885\u82b1\u4f1e
p4477
sV900904.ss
p4478
V\u795e\u5947B\u80a1
p4479
sV002691.sz
p4480
V\u77f3\u4e2d\u88c5\u5907
p4481
sV002261.sz
p4482
V\u62d3\u7ef4\u4fe1\u606f
p4483
sV600663.ss
p4484
V\u9646\u5bb6\u5634
p4485
sV300319.sz
p4486
V\u9ea6\u6377\u79d1\u6280
p4487
sV600765.ss
p4488
V\u4e2d\u822a\u91cd\u673a
p4489
sV600834.ss
p4490
V\u7533\u901a\u5730\u94c1
p4491
sV600293.ss
p4492
V\u4e09\u5ce1\u65b0\u6750
p4493
sV600083.ss
p4494
V\u535a\u4fe1\u80a1\u4efd
p4495
sV002018.sz
p4496
V\u534e\u661f\u5316\u5de5
p4497
sV300013.sz
p4498
V\u65b0\u5b81\u7269\u6d41
p4499
sV184689.sz
p4500
V\u57fa\u91d1\u666e\u60e0
p4501
sV600537.ss
p4502
V\u4ebf\u6676\u5149\u7535
p4503
sV300073.sz
p4504
V\u5f53\u5347\u79d1\u6280
p4505
sV500011.ss
p4506
V\u57fa\u91d1\u91d1\u946b
p4507
sV600448.ss
p4508
V\u534e\u7eba\u80a1\u4efd
p4509
sV600815.ss
p4510
V\u53a6\u5de5\u80a1\u4efd
p4511
sV002589.sz
p4512
V\u745e\u5eb7\u533b\u836f
p4513
sV600354.ss
p4514
V\u6566\u714c\u79cd\u4e1a
p4515
sV000156.sz
p4516
V\u534e\u6570\u4f20\u5a92
p4517
sV002643.sz
p4518
V\u70df\u53f0\u4e07\u6da6
p4519
sV002524.sz
p4520
V\u5149\u6b63\u96c6\u56e2
p4521
sV600077.ss
p4522
V\u5b8b\u90fd\u80a1\u4efd
p4523
sV002617.sz
p4524
V\u9732\u7b11\u79d1\u6280
p4525
sV300275.sz
p4526
V\u6885\u5b89\u68ee
p4527
sV000530.sz
p4528
V\u5927\u51b7\u80a1\u4efd
p4529
sV000415.sz
p4530
V\u6e24\u6d77\u79df\u8d41
p4531
sV002542.sz
p4532
V\u4e2d\u5316\u5ca9\u571f
p4533
sV002265.sz
p4534
V*ST\u897f\u4eea
p4535
sV300342.sz
p4536
V\u5929\u94f6\u673a\u7535
p4537
sV000970.sz
p4538
V\u4e2d\u79d1\u4e09\u73af
p4539
sV002131.sz
p4540
V\u5229\u6b27\u80a1\u4efd
p4541
sV900934.ss
p4542
V\u9526\u6c5fB\u80a1
p4543
sV601101.ss
p4544
V\u660a\u534e\u80fd\u6e90
p4545
sV600580.ss
p4546
V\u5367\u9f99\u7535\u6c14
p4547
sV002448.sz
p4548
V\u4e2d\u539f\u5185\u914d
p4549
sV300272.sz
p4550
V\u5f00\u80fd\u73af\u4fdd
p4551
sV002184.sz
p4552
V\u6d77\u5f97\u63a7\u5236
p4553
sV600728.ss
p4554
V\u4f73\u90fd\u79d1\u6280
p4555
sV002192.sz
p4556
V\u8def\u7fd4\u80a1\u4efd
p4557
sV300132.sz
p4558
V\u9752\u677e\u80a1\u4efd
p4559
sV600123.ss
p4560
V\u5170\u82b1\u79d1\u521b
p4561
sV600783.ss
p4562
V\u9c81\u4fe1\u521b\u6295
p4563
sV600252.ss
p4564
V\u4e2d\u6052\u96c6\u56e2
p4565
sV300011.sz
p4566
V\u9f0e\u6c49\u6280\u672f
p4567
sV600533.ss
p4568
V\u6816\u971e\u5efa\u8bbe
p4569
sV600372.ss
p4570
V\u4e2d\u822a\u7535\u5b50
p4571
sV000620.sz
p4572
V\u65b0\u534e\u8054
p4573
sV002647.sz
p4574
V\u5b8f\u78ca\u80a1\u4efd
p4575
sV000705.sz
p4576
V\u6d59\u6c5f\u9707\u5143
p4577
sV600506.ss
p4578
V\u9999\u68a8\u80a1\u4efd
p4579
sV600444.ss
p4580
V\u56fd\u901a\u7ba1\u4e1a
p4581
sV002656.sz
p4582
V\u5361\u5974\u8fea\u8def
p4583
sV002217.sz
p4584
V\u8054\u5408\u5316\u5de5
p4585
sV000762.sz
p4586
V\u897f\u85cf\u77ff\u4e1a
p4587
sV600746.ss
p4588
V\u6c5f\u82cf\u7d22\u666e
p4589
sV002562.sz
p4590
V\u5144\u5f1f\u79d1\u6280
p4591
sV002359.sz
p4592
V\u9f50\u661f\u94c1\u5854
p4593
sV002374.sz
p4594
V\u4e3d\u9e4f\u80a1\u4efd
p4595
sV002404.sz
p4596
V\u5609\u6b23\u4e1d\u7ef8
p4597
sV000950.sz
p4598
V\u5efa\u5cf0\u5316\u5de5
p4599
sV300206.sz
p4600
V\u7406\u90a6\u4eea\u5668
p4601
sV600438.ss
p4602
V\u901a\u5a01\u80a1\u4efd
p4603
sV300045.sz
p4604
V\u534e\u529b\u521b\u901a
p4605
sV300208.sz
p4606
V\u6052\u987a\u7535\u6c14
p4607
sV000522.sz
p4608
V\u767d\u4e91\u5c71A
p4609
sV600812.ss
p4610
V\u534e\u5317\u5236\u836f
p4611
sV002580.sz
p4612
V\u5723\u9633\u80a1\u4efd
p4613
sV002501.sz
p4614
V\u5229\u6e90\u7cbe\u5236
p4615
sV002227.sz
p4616
V\u5965\u7279\u8fc5
p4617
sV600510.ss
p4618
V\u9ed1\u7261\u4e39
p4619
sV002329.sz
p4620
V\u7687\u6c0f\u4e73\u4e1a
p4621
sV300099.sz
p4622
V\u5c24\u6d1b\u5361
p4623
sV000709.sz
p4624
V\u6cb3\u5317\u94a2\u94c1
p4625
sV002409.sz
p4626
V\u96c5\u514b\u79d1\u6280
p4627
sV601567.ss
p4628
V\u4e09\u661f\u7535\u6c14
p4629
sV000429.sz
p4630
V\u7ca4\u9ad8\u901fA
p4631
sV300071.sz
p4632
V\u534e\u8c0a\u5609\u4fe1
p4633
sV002280.sz
p4634
V\u65b0\u4e16\u7eaa
p4635
sV000610.sz
p4636
V\u897f\u5b89\u65c5\u6e38
p4637
sV002566.sz
p4638
V\u76ca\u76db\u836f\u4e1a
p4639
sV600674.ss
p4640
V\u5ddd\u6295\u80fd\u6e90
p4641
sV002477.sz
p4642
V\u96cf\u9e70\u519c\u7267
p4643
sV002684.sz
p4644
V\u731b\u72ee\u79d1\u6280
p4645
sV600755.ss
p4646
V\u53a6\u95e8\u56fd\u8d38
p4647
sV600990.ss
p4648
V\u56db\u521b\u7535\u5b50
p4649
sV002312.sz
p4650
V\u4e09\u6cf0\u7535\u5b50
p4651
sV000752.sz
p4652
V\u897f\u85cf\u53d1\u5c55
p4653
sV000659.sz
p4654
V\u73e0\u6d77\u4e2d\u5bcc
p4655
sV600157.ss
p4656
V\u6c38\u6cf0\u80fd\u6e90
p4657
sV000999.sz
p4658
V\u534e\u6da6\u4e09\u4e5d
p4659
sV002638.sz
p4660
V\u52e4\u4e0a\u5149\u7535
p4661
sV002023.sz
p4662
V\u6d77\u7279\u9ad8\u65b0
p4663
sV500038.ss
p4664
V\u57fa\u91d1\u901a\u4e7e
p4665
sV600452.ss
p4666
V\u6daa\u9675\u7535\u529b
p4667
sV000632.sz
p4668
V\u4e09\u6728\u96c6\u56e2
p4669
sV002060.sz
p4670
V\u7ca4\u6c34\u7535
p4671
sV002002.sz
p4672
V\u9e3f\u8fbe\u5174\u4e1a
p4673
sV300317.sz
p4674
V\u73c8\u4f1f\u80a1\u4efd
p4675
sV002558.sz
p4676
V\u4e16\u7eaa\u6e38\u8f6e
p4677
sV002366.sz
p4678
V\u4e39\u752b\u80a1\u4efd
p4679
sV002466.sz
p4680
V\u5929\u9f50\u9502\u4e1a
p4681
sV000029.sz
p4682
V\u6df1\u6df1\u623fA
p4683
sV200054.sz
p4684
V*ST\u5efa\u6469B
p4685
sV300284.sz
p4686
V\u82cf\u4ea4\u79d1
p4687
sV600682.ss
p4688
V\u5357\u4eac\u65b0\u767e
p4689
sV002452.sz
p4690
V\u957f\u9ad8\u96c6\u56e2
p4691
sV600667.ss
p4692
V\u592a\u6781\u5b9e\u4e1a
p4693
sV600127.ss
p4694
V\u91d1\u5065\u7c73\u4e1a
p4695
sV600502.ss
p4696
V\u5b89\u5fbd\u6c34\u5229
p4697
sV002425.sz
p4698
V\u51ef\u6492\u80a1\u4efd
p4699
sV002315.sz
p4700
V\u7126\u70b9\u79d1\u6280
p4701
sV600651.ss
p4702
V\u98de\u4e50\u97f3\u54cd
p4703
sV200770.sz
p4704
V*ST\u6b66\u9505B
p4705
sV200521.sz
p4706
V\u7696\u7f8e\u83f1B
p4707
sV600828.ss
p4708
V\u6210\u5546\u96c6\u56e2
p4709
sV002005.sz
p4710
V\u5fb7\u8c6a\u6da6\u8fbe
p4711
sV000425.sz
p4712
V\u5f90\u5de5\u673a\u68b0
p4713
sV500001.ss
p4714
V\u57fa\u91d1\u91d1\u6cf0
p4715
sV600874.ss
p4716
V\u521b\u4e1a\u73af\u4fdd
p4717
sV002453.sz
p4718
V\u5929\u9a6c\u7cbe\u5316
p4719
sV002086.sz
p4720
V\u4e1c\u65b9\u6d77\u6d0b
p4721
sV600697.ss
p4722
V\u6b27\u4e9a\u96c6\u56e2
p4723
sV600508.ss
p4724
V\u4e0a\u6d77\u80fd\u6e90
p4725
sV300337.sz
p4726
V\u94f6\u90a6\u80a1\u4efd
p4727
sV600330.ss
p4728
V\u5929\u901a\u80a1\u4efd
p4729
sV600229.ss
p4730
V\u9752\u5c9b\u78b1\u4e1a
p4731
sV000030.sz
p4732
V\u5bcc\u5965\u80a1\u4efd
p4733
sV600391.ss
p4734
V\u6210\u53d1\u79d1\u6280
p4735
sV600433.ss
p4736
V\u51a0\u8c6a\u9ad8\u65b0
p4737
sV300353.sz
p4738
V\u4e1c\u571f\u79d1\u6280
p4739
sV000016.sz
p4740
V\u6df1\u5eb7\u4f73A
p4741
sV002537.sz
p4742
V\u6d77\u7acb\u7f8e\u8fbe
p4743
sV601179.ss
p4744
V\u4e2d\u56fd\u897f\u7535
p4745
sV900922.ss
p4746
V\u4e09\u6bdbB\u80a1
p4747
sV000516.sz
p4748
V\u5f00\u5143\u6295\u8d44
p4749
sV200541.sz
p4750
V\u7ca4\u7167\u660eB
p4751
sV000504.sz
p4752
V*ST\u4f20\u5a92
p4753
sV300212.sz
p4754
V\u6613\u534e\u5f55
p4755
sV002072.sz
p4756
V\u5fb7\u68c9\u80a1\u4efd
p4757
sV600055.ss
p4758
V\u534e\u6da6\u4e07\u4e1c
p4759
sV002112.sz
p4760
V\u4e09\u53d8\u79d1\u6280
p4761
sV000590.sz
p4762
V\u7d2b\u5149\u53e4\u6c49
p4763
sV000899.sz
p4764
V\u8d63\u80fd\u80a1\u4efd
p4765
sV000409.sz
p4766
V\u5c71\u4e1c\u5730\u77ff
p4767
sV600371.ss
p4768
V\u4e07\u5411\u5fb7\u519c
p4769
sV600559.ss
p4770
V\u8001\u767d\u5e72\u9152
p4771
sV002447.sz
p4772
V\u58f9\u6865\u82d7\u4e1a
p4773
sV600278.ss
p4774
V\u4e1c\u65b9\u521b\u4e1a
p4775
sV600690.ss
p4776
V\u9752\u5c9b\u6d77\u5c14
p4777
sV510060.ss
p4778
V\u592e\u4f01ETF
p4779
sV002609.sz
p4780
V\u6377\u987a\u79d1\u6280
p4781
sV600610.ss
p4782
VS\u4e2d\u7eba\u673a
p4783
sV002081.sz
p4784
V\u91d1\u87b3\u8782
p4785
sV000008.sz
p4786
V\u5b9d\u5229\u6765
p4787
sV002507.sz
p4788
V\u6daa\u9675\u69a8\u83dc
p4789
sV300280.sz
p4790
V\u5357\u901a\u953b\u538b
p4791
sV300093.sz
p4792
V\u91d1\u521a\u73bb\u7483
p4793
sV000807.sz
p4794
V\u4e91\u94dd\u80a1\u4efd
p4795
sV002240.sz
p4796
V\u5a01\u534e\u80a1\u4efd
p4797
sV500018.ss
p4798
V\u57fa\u91d1\u5174\u548c
p4799
sV000926.sz
p4800
V\u798f\u661f\u80a1\u4efd
p4801
sV600272.ss
p4802
V\u5f00\u5f00\u5b9e\u4e1a
p4803
sV000012.sz
p4804
V\u5357\u73bbA
p4805
sV600816.ss
p4806
V\u5b89\u4fe1\u4fe1\u6258
p4807
sV000514.sz
p4808
V\u6e1d\u5f00\u53d1
p4809
sV002170.sz
p4810
V\u82ad\u7530\u80a1\u4efd
p4811
sV002297.sz
p4812
V\u535a\u4e91\u65b0\u6750
p4813
sV002337.sz
p4814
V\u8d5b\u8c61\u79d1\u6280
p4815
sV600087.ss
p4816
V*ST\u957f\u6cb9
p4817
sV600639.ss
p4818
V\u6d66\u4e1c\u91d1\u6865
p4819
sV000411.sz
p4820
V\u82f1\u7279\u96c6\u56e2
p4821
sV600149.ss
p4822
V\u5eca\u574a\u53d1\u5c55
p4823
sV165509.sz
p4824
V\u4fe1\u8bda\u589e\u5f3a
p4825
sV600830.ss
p4826
V\u9999\u6ea2\u878d\u901a
p4827
sV000526.sz
p4828
V\u94f6\u6da6\u6295\u8d44
p4829
sV000628.sz
p4830
V\u9ad8\u65b0\u53d1\u5c55
p4831
sV000682.sz
p4832
V\u4e1c\u65b9\u7535\u5b50
p4833
sV002540.sz
p4834
V\u4e9a\u592a\u79d1\u6280
p4835
sV600568.ss
p4836
V\u4e2d\u73e0\u63a7\u80a1
p4837
sV002473.sz
p4838
V\u5723\u83b1\u8fbe
p4839
sV600209.ss
p4840
V\u7f57\u987f\u53d1\u5c55
p4841
sV601168.ss
p4842
V\u897f\u90e8\u77ff\u4e1a
p4843
sV600998.ss
p4844
V\u4e5d\u5dde\u901a
p4845
sV600089.ss
p4846
V\u7279\u53d8\u7535\u5de5
p4847
sV000586.sz
p4848
V\u6c47\u6e90\u901a\u4fe1
p4849
sV600608.ss
p4850
V\u4e0a\u6d77\u79d1\u6280
p4851
sV300102.sz
p4852
V\u4e7e\u7167\u5149\u7535
p4853
sV600579.ss
p4854
V*ST\u9ec4\u6d77
p4855
sV002347.sz
p4856
V\u6cf0\u5c14\u91cd\u5de5
p4857
sV600892.ss
p4858
V\u5b9d\u8bda\u80a1\u4efd
p4859
sV002486.sz
p4860
V\u5609\u9e9f\u6770
p4861
sV900911.ss
p4862
V\u91d1\u6865B\u80a1
p4863
sV002350.sz
p4864
V\u5317\u4eac\u79d1\u9510
p4865
sV601666.ss
p4866
V\u5e73\u7164\u80a1\u4efd
p4867
sV002120.sz
p4868
V\u65b0\u6d77\u80a1\u4efd
p4869
sV600222.ss
p4870
V\u592a\u9f99\u836f\u4e1a
p4871
sV300350.sz
p4872
V\u534e\u9e4f\u98de
p4873
sV002169.sz
p4874
V\u667a\u5149\u7535\u6c14
p4875
sV002372.sz
p4876
V\u4f1f\u661f\u65b0\u6750
p4877
sV600826.ss
p4878
V\u5170\u751f\u80a1\u4efd
p4879
sV600657.ss
p4880
V\u4fe1\u8fbe\u5730\u4ea7
p4881
sV200017.sz
p4882
V*ST\u4e2d\u534eB
p4883
sV002241.sz
p4884
V\u6b4c\u5c14\u58f0\u5b66
p4885
sV601555.ss
p4886
V\u4e1c\u5434\u8bc1\u5238
p4887
sV000503.sz
p4888
V\u6d77\u8679\u63a7\u80a1
p4889
sV601377.ss
p4890
V\u5174\u4e1a\u8bc1\u5238
p4891
sV300141.sz
p4892
V\u548c\u987a\u7535\u6c14
p4893
sV300007.sz
p4894
V\u6c49\u5a01\u7535\u5b50
p4895
sV002539.sz
p4896
V\u65b0\u90fd\u5316\u5de5
p4897
sV002311.sz
p4898
V\u6d77\u5927\u96c6\u56e2
p4899
sV300029.sz
p4900
V\u5929\u9f99\u5149\u7535
p4901
sV002652.sz
p4902
V\u626c\u5b50\u65b0\u6750
p4903
sV002581.sz
p4904
V\u4e07\u660c\u79d1\u6280
p4905
sV600175.ss
p4906
V\u7f8e\u90fd\u63a7\u80a1
p4907
sV600108.ss
p4908
V\u4e9a\u76db\u96c6\u56e2
p4909
sV000778.sz
p4910
V\u65b0\u5174\u94f8\u7ba1
p4911
sV600863.ss
p4912
V\u5185\u8499\u534e\u7535
p4913
sV300223.sz
p4914
V\u5317\u4eac\u541b\u6b63
p4915
sV002173.sz
p4916
V\u5343\u8db3\u73cd\u73e0
p4917
sV002645.sz
p4918
V\u534e\u5b8f\u79d1\u6280
p4919
sV600557.ss
p4920
V\u5eb7\u7f18\u836f\u4e1a
p4921
sV600226.ss
p4922
V\u5347\u534e\u62dc\u514b
p4923
sV002556.sz
p4924
V\u8f89\u9686\u80a1\u4efd
p4925
sV184693.sz
p4926
V\u57fa\u91d1\u666e\u4e30
p4927
sV002455.sz
p4928
V\u767e\u5ddd\u80a1\u4efd
p4929
sV002607.sz
p4930
V\u4e9a\u590f\u6c7d\u8f66
p4931
sV002196.sz
p4932
V\u65b9\u6b63\u7535\u673a
p4933
sV002053.sz
p4934
V\u4e91\u5357\u76d0\u5316
p4935
sV159912.sz
p4936
V\u6df1300ETF
p4937
sV600846.ss
p4938
V\u540c\u6d4e\u79d1\u6280
p4939
sV600787.ss
p4940
V\u4e2d\u50a8\u80a1\u4efd
p4941
sV002043.sz
p4942
V\u5154\u5b9d\u5b9d
p4943
sV002006.sz
p4944
V\u7cbe\u529f\u79d1\u6280
p4945
sV000912.sz
p4946
V\u6cf8\u5929\u5316
p4947
sV002333.sz
p4948
V\u7f57\u666e\u65af\u91d1
p4949
sV600649.ss
p4950
V\u57ce\u6295\u63a7\u80a1
p4951
sV002418.sz
p4952
V\u5eb7\u76db\u80a1\u4efd
p4953
sV600363.ss
p4954
V\u8054\u521b\u5149\u7535
p4955
sV600256.ss
p4956
V\u5e7f\u6c47\u80fd\u6e90
p4957
sV600171.ss
p4958
V\u4e0a\u6d77\u8d1d\u5cad
p4959
sV002509.sz
p4960
V\u5929\u5e7f\u6d88\u9632
p4961
sV600379.ss
p4962
V\u5b9d\u5149\u80a1\u4efd
p4963
sV002490.sz
p4964
V\u5c71\u4e1c\u58a8\u9f99
p4965
sV002574.sz
p4966
V\u660e\u724c\u73e0\u5b9d
p4967
sV600503.ss
p4968
V\u534e\u4e3d\u5bb6\u65cf
p4969
sV600246.ss
p4970
V\u4e07\u901a\u5730\u4ea7
p4971
sV300214.sz
p4972
V\u65e5\u79d1\u5316\u5b66
p4973
sV000756.sz
p4974
V\u65b0\u534e\u5236\u836f
p4975
sV600396.ss
p4976
V\u91d1\u5c71\u80a1\u4efd
p4977
sV000811.sz
p4978
V\u70df\u53f0\u51b0\u8f6e
p4979
sV600694.ss
p4980
V\u5927\u5546\u80a1\u4efd
p4981
sV002027.sz
p4982
V\u4e03\u559c\u63a7\u80a1
p4983
sV002085.sz
p4984
V\u4e07\u4e30\u5965\u5a01
p4985
sV002622.sz
p4986
V\u6c38\u5927\u96c6\u56e2
p4987
sV600867.ss
p4988
V\u901a\u5316\u4e1c\u5b9d
p4989
sV601519.ss
p4990
V\u5927\u667a\u6167
p4991
sV000933.sz
p4992
V\u795e\u706b\u80a1\u4efd
p4993
sV600207.ss
p4994
V\u5b89\u5f69\u9ad8\u79d1
p4995
sV601011.ss
p4996
V\u5b9d\u6cf0\u9686
p4997
sV600587.ss
p4998
V\u65b0\u534e\u533b\u7597
p4999
sV002201.sz
p5000
V\u4e5d\u9f0e\u65b0\u6750
p5001
sV184728.sz
p5002
V\u57fa\u91d1\u9e3f\u9633
p5003
sV002248.sz
p5004
V\u534e\u4e1c\u6570\u63a7
p5005
sV600301.ss
p5006
V*ST\u5357\u5316
p5007
sV000518.sz
p5008
V\u56db\u73af\u751f\u7269
p5009
sV600572.ss
p5010
V\u5eb7\u6069\u8d1d
p5011
sV002513.sz
p5012
V\u84dd\u4e30\u751f\u5316
p5013
sV601636.ss
p5014
V\u65d7\u6ee8\u96c6\u56e2
p5015
sV300354.sz
p5016
V\u4e1c\u534e\u6d4b\u8bd5
p5017
sV000507.sz
p5018
V\u73e0\u6d77\u6e2f
p5019
sV002363.sz
p5020
V\u9686\u57fa\u673a\u68b0
p5021
sV000958.sz
p5022
V*ST\u4e1c\u70ed
p5023
sV600745.ss
p5024
V\u4e2d\u8335\u80a1\u4efd
p5025
sV600238.ss
p5026
V\u6d77\u5357\u6930\u5c9b
p5027
sV002681.sz
p5028
V\u594b\u8fbe\u79d1\u6280
p5029
sV002421.sz
p5030
V\u8fbe\u5b9e\u667a\u80fd
p5031
sV600861.ss
p5032
V\u5317\u4eac\u57ce\u4e61
p5033
sV000809.sz
p5034
V\u94c1\u5cad\u65b0\u57ce
p5035
sV601010.ss
p5036
V\u6587\u5cf0\u80a1\u4efd
p5037
sV600872.ss
p5038
V\u4e2d\u70ac\u9ad8\u65b0
p5039
sV002626.sz
p5040
V\u91d1\u8fbe\u5a01
p5041
sV300077.sz
p5042
V\u56fd\u6c11\u6280\u672f
p5043
sV300168.sz
p5044
V\u4e07\u8fbe\u4fe1\u606f
p5045
sV600606.ss
p5046
V\u91d1\u4e30\u6295\u8d44
p5047
sV002242.sz
p5048
V\u4e5d\u9633\u80a1\u4efd
p5049
sV000576.sz
p5050
V\u5e7f\u4e1c\u7518\u5316
p5051
sV600146.ss
p5052
V\u5927\u5143\u80a1\u4efd
p5053
sV600031.ss
p5054
V\u4e09\u4e00\u91cd\u5de5
p5055
sV000598.sz
p5056
V\u5174\u84c9\u6295\u8d44
p5057
sV600523.ss
p5058
V\u8d35\u822a\u80a1\u4efd
p5059
sV002599.sz
p5060
V\u76db\u901a\u80a1\u4efd
p5061
sV600388.ss
p5062
V\u9f99\u51c0\u73af\u4fdd
p5063
sV002663.sz
p5064
V\u666e\u90a6\u56ed\u6797
p5065
sV600078.ss
p5066
V\u6f84\u661f\u80a1\u4efd
p5067
sV600516.ss
p5068
V\u65b9\u5927\u70ad\u7d20
p5069
sV601899.ss
p5070
V\u7d2b\u91d1\u77ff\u4e1a
p5071
sV000034.sz
p5072
V\u6df1\u4fe1\u6cf0\u4e30
p5073
sV200160.sz
p5074
V\u5357\u6c5fB
p5075
sV002646.sz
p5076
V\u9752\u9752\u7a1e\u9152
p5077
sV600890.ss
p5078
V\u4e2d\u623f\u80a1\u4efd
p5079
sV002603.sz
p5080
V\u4ee5\u5cad\u836f\u4e1a
p5081
sV002442.sz
p5082
V\u9f99\u661f\u5316\u5de5
p5083
sV002264.sz
p5084
V\u65b0\u534e\u90fd
p5085
sV002300.sz
p5086
V\u592a\u9633\u7535\u7f06
p5087
sV601088.ss
p5088
V\u4e2d\u56fd\u795e\u534e
p5089
sV600053.ss
p5090
V\u4e2d\u6c5f\u5730\u4ea7
p5091
sV000594.sz
p5092
V*ST\u56fd\u6052
p5093
sV600971.ss
p5094
V\u6052\u6e90\u7164\u7535
p5095
sV601328.ss
p5096
V\u4ea4\u901a\u94f6\u884c
p5097
sV601336.ss
p5098
V\u65b0\u534e\u4fdd\u9669
p5099
sV600713.ss
p5100
V\u5357\u4eac\u533b\u836f
p5101
sV600688.ss
p5102
V\u4e0a\u6d77\u77f3\u5316
p5103
sV002701.sz
p5104
V\u5965\u745e\u91d1
p5105
sV002078.sz
p5106
V\u592a\u9633\u7eb8\u4e1a
p5107
sV000715.sz
p5108
V\u4e2d\u5174\u5546\u4e1a
p5109
sV600887.ss
p5110
V\u4f0a\u5229\u80a1\u4efd
p5111
sV000829.sz
p5112
V\u5929\u97f3\u63a7\u80a1
p5113
sV000581.sz
p5114
V\u5a01\u5b5a\u9ad8\u79d1
p5115
sV002290.sz
p5116
V\u79be\u76db\u65b0\u6750
p5117
sV000662.sz
p5118
V\u7d22\u8299\u7279
p5119
sV000690.sz
p5120
V\u5b9d\u65b0\u80fd\u6e90
p5121
sV300289.sz
p5122
V\u5229\u5fb7\u66fc
p5123
sV600614.ss
p5124
V\u9f0e\u7acb\u80a1\u4efd
p5125
sV002136.sz
p5126
V\u5b89\u7eb3\u8fbe
p5127
sV000564.sz
p5128
V\u897f\u5b89\u6c11\u751f
p5129
sV002140.sz
p5130
V\u4e1c\u534e\u79d1\u6280
p5131
sV900938.ss
p5132
V\u5929\u6d77B
p5133
sV000159.sz
p5134
V\u56fd\u9645\u5b9e\u4e1a
p5135
sV000859.sz
p5136
V\u56fd\u98ce\u5851\u4e1a
p5137
sV000777.sz
p5138
V\u4e2d\u6838\u79d1\u6280
p5139
sV300292.sz
p5140
V\u5434\u901a\u901a\u8baf
p5141
sV600268.ss
p5142
V\u56fd\u7535\u5357\u81ea
p5143
sV600777.ss
p5144
V\u65b0\u6f6e\u5b9e\u4e1a
p5145
sV000402.sz
p5146
V\u91d1\u878d\u8857
p5147
sV000004.sz
p5148
V\u56fd\u519c\u79d1\u6280
p5149
sV002188.sz
p5150
V\u65b0\u5609\u8054
p5151
sV002161.sz
p5152
V\u8fdc\u671b\u8c37
p5153
sV601299.ss
p5154
V\u4e2d\u56fd\u5317\u8f66
p5155
sV600804.ss
p5156
V\u9e4f\u535a\u58eb
p5157
sV900946.ss
p5158
VST\u8f7b\u9a91B
p5159
sV601800.ss
p5160
V\u4e2d\u56fd\u4ea4\u5efa
p5161
sV300301.sz
p5162
V\u957f\u65b9\u7167\u660e
p5163
sV000925.sz
p5164
V\u4f17\u5408\u673a\u7535
p5165
sV600883.ss
p5166
V\u535a\u95fb\u79d1\u6280
p5167
sV002408.sz
p5168
V\u9f50\u7fd4\u817e\u8fbe
p5169
sV600602.ss
p5170
V\u4eea\u7535\u7535\u5b50
p5171
sV200025.sz
p5172
V\u7279\u529bB
p5173
sV300172.sz
p5174
V\u4e2d\u7535\u73af\u4fdd
p5175
sV600490.ss
p5176
V\u9e4f\u6b23\u8d44\u6e90
p5177
sV000560.sz
p5178
V\u6606\u767e\u5927A
p5179
sV600425.ss
p5180
V\u9752\u677e\u5efa\u5316
p5181
sV600487.ss
p5182
V\u4ea8\u901a\u5149\u7535
p5183
sV600754.ss
p5184
V\u9526\u6c5f\u80a1\u4efd
p5185
sV000582.sz
p5186
V\u5317\u6d77\u6e2f
p5187
sV600203.ss
p5188
V\u798f\u65e5\u7535\u5b50
p5189
sV002139.sz
p5190
V\u62d3\u90a6\u80a1\u4efd
p5191
sV002146.sz
p5192
V\u8363\u76db\u53d1\u5c55
p5193
sV000837.sz
p5194
V\u79e6\u5ddd\u53d1\u5c55
p5195
sV600276.ss
p5196
V\u6052\u745e\u533b\u836f
p5197
sV300249.sz
p5198
V\u4f9d\u7c73\u5eb7
p5199
sV002279.sz
p5200
V\u4e45\u5176\u8f6f\u4ef6
p5201
sV150025.sz
p5202
V\u666f\u4e30A
p5203
sV600795.ss
p5204
V\u56fd\u7535\u7535\u529b
p5205
sV000670.sz
p5206
VS\u821c\u5143
p5207
sV600073.ss
p5208
V\u4e0a\u6d77\u6885\u6797
p5209
sV002343.sz
p5210
V\u79be\u6b23\u80a1\u4efd
p5211
sV600306.ss
p5212
V\u5546\u4e1a\u57ce
p5213
sV002658.sz
p5214
V\u96ea\u8fea\u9f99
p5215
sV000534.sz
p5216
V\u4e07\u6cfd\u80a1\u4efd
p5217
sV300117.sz
p5218
V\u5609\u5bd3\u80a1\u4efd
p5219
sV600529.ss
p5220
V\u5c71\u4e1c\u836f\u73bb
p5221
sV600822.ss
p5222
V\u4e0a\u6d77\u7269\u8d38
p5223
sV600576.ss
p5224
V\u4e07\u597d\u4e07\u5bb6
p5225
sV600463.ss
p5226
V\u7a7a\u6e2f\u80a1\u4efd
p5227
sV002552.sz
p5228
V\u5b9d\u9f0e\u91cd\u5de5
p5229
sV002205.sz
p5230
V\u56fd\u7edf\u80a1\u4efd
p5231
sV600741.ss
p5232
V\u534e\u57df\u6c7d\u8f66
p5233
sV600833.ss
p5234
V\u7b2c\u4e00\u533b\u836f
p5235
sV159916.sz
p5236
V\u6df1F60
p5237
sV002677.sz
p5238
V\u6d59\u6c5f\u7f8e\u5927
p5239
sV900941.ss
p5240
V\u4e1c\u4fe1B\u80a1
p5241
sV000088.sz
p5242
V\u76d0\u7530\u6e2f
p5243
sV510020.ss
p5244
V\u8d85\u5927ETF
p5245
sV300097.sz
p5246
V\u667a\u4e91\u80a1\u4efd
p5247
sV002166.sz
p5248
V\u83b1\u8335\u751f\u7269
p5249
sV159918.sz
p5250
V\u4e2d\u521b400
p5251
sV300227.sz
p5252
V\u5149\u97f5\u8fbe
p5253
sV600116.ss
p5254
V\u4e09\u5ce1\u6c34\u5229
p5255
sV600302.ss
p5256
V\u6807\u51c6\u80a1\u4efd
p5257
sV002262.sz
p5258
V\u6069\u534e\u836f\u4e1a
p5259
sV300113.sz
p5260
V\u987a\u7f51\u79d1\u6280
p5261
sV000421.sz
p5262
V\u5357\u4eac\u4e2d\u5317
p5263
sV300230.sz
p5264
V\u6c38\u5229\u5e26\u4e1a
p5265
sV600290.ss
p5266
V\u534e\u4eea\u7535\u6c14
p5267
sV300221.sz
p5268
V\u94f6\u79a7\u79d1\u6280
p5269
sV000669.sz
p5270
V\u91d1\u9e3f\u80fd\u6e90
p5271
sV000861.sz
p5272
V\u6d77\u5370\u80a1\u4efd
p5273
sV300080.sz
p5274
V\u65b0\u5927\u65b0\u6750
p5275
sV300250.sz
p5276
V\u521d\u7075\u4fe1\u606f
p5277
sV002346.sz
p5278
V\u67d8\u4e2d\u5efa\u8bbe
p5279
sV600837.ss
p5280
V\u6d77\u901a\u8bc1\u5238
p5281
sV300135.sz
p5282
V\u5b9d\u5229\u6ca5\u9752
p5283
sV900933.ss
p5284
V\u534e\u65b0B\u80a1
p5285
sV000020.sz
p5286
V\u6df1\u534e\u53d1A
p5287
sV600401.ss
p5288
V\u6d77\u6da6\u5149\u4f0f
p5289
sV002093.sz
p5290
V\u56fd\u8109\u79d1\u6280
p5291
sV002057.sz
p5292
V\u4e2d\u94a2\u5929\u6e90
p5293
sV300123.sz
p5294
V\u592a\u9633\u9e1f
p5295
sV002640.sz
p5296
V\u767e\u5706\u88e4\u4e1a
p5297
sV000680.sz
p5298
V\u5c71\u63a8\u80a1\u4efd
p5299
sV002183.sz
p5300
V\u6021\u4e9a\u901a
p5301
sV600160.ss
p5302
V\u5de8\u5316\u80a1\u4efd
p5303
sV002412.sz
p5304
V\u6c49\u68ee\u5236\u836f
p5305
sV600624.ss
p5306
V\u590d\u65e6\u590d\u534e
p5307
sV600749.ss
p5308
V\u897f\u85cf\u65c5\u6e38
p5309
sV601700.ss
p5310
V\u98ce\u8303\u80a1\u4efd
p5311
sV600455.ss
p5312
V\u535a\u901a\u80a1\u4efd
p5313
sV601788.ss
p5314
V\u5149\u5927\u8bc1\u5238
p5315
s.