(lp1
V002281.sz
p2
aV900937.ss
p3
aV002132.sz
p4
aV300271.sz
p5
aV600489.ss
p6
aV600899.ss
p7
aV300096.sz
p8
aV600778.ss
p9
aV601000.ss
p10
aV000799.sz
p11
aV600104.ss
p12
aV300253.sz
p13
aV002187.sz
p14
aV300178.sz
p15
aV002077.sz
p16
aV300242.sz
p17
aV002561.sz
p18
aV600976.ss
p19
aV150134.sz
p20
aV510880.ss
p21
aV000050.sz
p22
aV002276.sz
p23
aV600997.ss
p24
aV600752.ss
p25
aV000819.sz
p26
aV900917.ss
p27
aV600468.ss
p28
aV002480.sz
p29
aV300062.sz
p30
aV601918.ss
p31
aV300308.sz
p32
aV300322.sz
p33
aV163001.sz
p34
aV600150.ss
p35
aV000688.sz
p36
aV000980.sz
p37
aV601939.ss
p38
aV002431.sz
p39
aV600632.ss
p40
aV600353.ss
p41
aV600527.ss
p42
aV900956.ss
p43
aV600758.ss
p44
aV002593.sz
p45
aV184705.sz
p46
aV601188.ss
p47
aV600382.ss
p48
aV002330.sz
p49
aV600993.ss
p50
aV600309.ss
p51
aV002215.sz
p52
aV161810.sz
p53
aV600145.ss
p54
aV000938.sz
p55
aV601908.ss
p56
aV600717.ss
p57
aV600726.ss
p58
aV150131.sz
p59
aV164902.sz
p60
aV600975.ss
p61
aV164810.sz
p62
aV002124.sz
p63
aV300160.sz
p64
aV300340.sz
p65
aV600960.ss
p66
aV601018.ss
p67
aV600199.ss
p68
aV600636.ss
p69
aV150153.sz
p70
aV002020.sz
p71
aV002105.sz
p72
aV300021.sz
p73
aV002233.sz
p74
aV900945.ss
p75
aV300266.sz
p76
aV600365.ss
p77
aV300305.sz
p78
aV000895.sz
p79
aV600507.ss
p80
aV603001.ss
p81
aV000862.sz
p82
aV601098.ss
p83
aV002144.sz
p84
aV600193.ss
p85
aV601718.ss
p86
aV600170.ss
p87
aV000403.sz
p88
aV600001.ss
p89
aV300017.sz
p90
aV000505.sz
p91
aV002322.sz
p92
aV184703.sz
p93
aV150017.sz
p94
aV000061.sz
p95
aV601998.ss
p96
aV300032.sz
p97
aV002109.sz
p98
aV000555.sz
p99
aV150080.sz
p100
aV002229.sz
p101
aV600483.ss
p102
aV300057.sz
p103
aV601799.ss
p104
aV000918.sz
p105
aV600093.ss
p106
aV150022.sz
p107
aV163210.sz
p108
aV002282.sz
p109
aV600369.ss
p110
aV000611.sz
p111
aV002709.sz
p112
aV300334.sz
p113
aV200028.sz
p114
aV600725.ss
p115
aV002039.sz
p116
aV002695.sz
p117
aV150064.sz
p118
aV300176.sz
p119
aV002152.sz
p120
aV580027.ss
p121
aV600588.ss
p122
aV160128.sz
p123
aV600216.ss
p124
aV002494.sz
p125
aV510070.ss
p126
aV002247.sz
p127
aV002377.sz
p128
aV600645.ss
p129
aV000791.sz
p130
aV002484.sz
p131
aV600852.ss
p132
aV000738.sz
p133
aV002032.sz
p134
aV000726.sz
p135
aV300383.sz
p136
aV300360.sz
p137
aV202007.ss
p138
aV600811.ss
p139
aV600100.ss
p140
aV300346.sz
p141
aV300004.sz
p142
aV300127.sz
p143
aV002629.sz
p144
aV200581.sz
p145
aV300164.sz
p146
aV300066.sz
p147
aV600208.ss
p148
aV600689.ss
p149
aV002483.sz
p150
aV300053.sz
p151
aV002673.sz
p152
aV600666.ss
p153
aV600332.ss
p154
aV150063.sz
p155
aV002424.sz
p156
aV000833.sz
p157
aV900952.ss
p158
aV300076.sz
p159
aV600260.ss
p160
aV002667.sz
p161
aV600791.ss
p162
aV300118.sz
p163
aV600591.ss
p164
aV002414.sz
p165
aV600197.ss
p166
aV000701.sz
p167
aV000795.sz
p168
aV600234.ss
p169
aV300037.sz
p170
aV600318.ss
p171
aV600719.ss
p172
aV000763.sz
p173
aV000805.sz
p174
aV600560.ss
p175
aV002586.sz
p176
aV002630.sz
p177
aV002271.sz
p178
aV000748.sz
p179
aV150046.sz
p180
aV002548.sz
p181
aV300203.sz
p182
aV600439.ss
p183
aV166904.sz
p184
aV300273.sz
p185
aV510090.ss
p186
aV002536.sz
p187
aV000024.sz
p188
aV000755.sz
p189
aV002316.sz
p190
aV510010.ss
p191
aV002304.sz
p192
aV600547.ss
p193
aV002390.sz
p194
aV000544.sz
p195
aV600838.ss
p196
aV000585.sz
p197
aV002294.sz
p198
aV600065.ss
p199
aV002209.sz
p200
aV600721.ss
p201
aV600595.ss
p202
aV600558.ss
p203
aV600010.ss
p204
aV163503.sz
p205
aV600678.ss
p206
aV002608.sz
p207
aV000407.sz
p208
aV002289.sz
p209
aV600320.ss
p210
aV000949.sz
p211
aV600098.ss
p212
aV600773.ss
p213
aV000722.sz
p214
aV000972.sz
p215
aV603399.ss
p216
aV600405.ss
p217
aV002295.sz
p218
aV300260.sz
p219
aV000718.sz
p220
aV600343.ss
p221
aV150146.sz
p222
aV200002.sz
p223
aV002612.sz
p224
aV150050.sz
p225
aV600023.ss
p226
aV002597.sz
p227
aV150039.sz
p228
aV600386.ss
p229
aV600176.ss
p230
aV600500.ss
p231
aV000723.sz
p232
aV002211.sz
p233
aV600858.ss
p234
aV002326.sz
p235
aV002028.sz
p236
aV510680.ss
p237
aV002082.sz
p238
aV200539.sz
p239
aV002528.sz
p240
aV002388.sz
p241
aV600693.ss
p242
aV150158.sz
p243
aV002004.sz
p244
aV000650.sz
p245
aV200553.sz
p246
aV600900.ss
p247
aV002478.sz
p248
aV601888.ss
p249
aV002531.sz
p250
aV600641.ss
p251
aV002386.sz
p252
aV300049.sz
p253
aV600655.ss
p254
aV601933.ss
p255
aV600027.ss
p256
aV150130.sz
p257
aV002465.sz
p258
aV300016.sz
p259
aV000506.sz
p260
aV002407.sz
p261
aV000042.sz
p262
aV150021.sz
p263
aV600467.ss
p264
aV600986.ss
p265
aV002479.sz
p266
aV000066.sz
p267
aV150054.sz
p268
aV002720.sz
p269
aV300070.sz
p270
aV600421.ss
p271
aV002543.sz
p272
aV511010.ss
p273
aV300351.sz
p274
aV000883.sz
p275
aV002488.sz
p276
aV002268.sz
p277
aV300012.sz
p278
aV000711.sz
p279
aV600875.ss
p280
aV002024.sz
p281
aV000538.sz
p282
aV000900.sz
p283
aV300194.sz
p284
aV002178.sz
p285
aV002029.sz
p286
aV002405.sz
p287
aV600242.ss
p288
aV300254.sz
p289
aV000675.sz
p290
aV000815.sz
p291
aV002461.sz
p292
aV002547.sz
p293
aV600676.ss
p294
aV300344.sz
p295
aV600291.ss
p296
aV600661.ss
p297
aV000065.sz
p298
aV000860.sz
p299
aV159003.sz
p300
aV159913.sz
p301
aV150093.sz
p302
aV000070.sz
p303
aV150001.sz
p304
aV601872.ss
p305
aV300008.sz
p306
aV000826.sz
p307
aV600817.ss
p308
aV600028.ss
p309
aV600002.ss
p310
aV600257.ss
p311
aV000509.sz
p312
aV002156.sz
p313
aV160706.sz
p314
aV002567.sz
p315
aV002399.sz
p316
aV300086.sz
p317
aV000702.sz
p318
aV600613.ss
p319
aV600061.ss
p320
aV000557.sz
p321
aV600082.ss
p322
aV002252.sz
p323
aV600856.ss
p324
aV600336.ss
p325
aV600841.ss
p326
aV002526.sz
p327
aV300288.sz
p328
aV600821.ss
p329
aV600178.ss
p330
aV002147.sz
p331
aV002222.sz
p332
aV000150.sz
p333
aV161005.sz
p334
aV000698.sz
p335
aV600531.ss
p336
aV300270.sz
p337
aV150100.sz
p338
aV002318.sz
p339
aV600250.ss
p340
aV203043.ss
p341
aV002492.sz
p342
aV000821.sz
p343
aV201008.ss
p344
aV601588.ss
p345
aV000049.sz
p346
aV000567.sz
p347
aV002585.sz
p348
aV162715.sz
p349
aV300345.sz
p350
aV601005.ss
p351
aV300306.sz
p352
aV002680.sz
p353
aV600617.ss
p354
aV300047.sz
p355
aV002406.sz
p356
aV000055.sz
p357
aV002256.sz
p358
aV300204.sz
p359
aV002376.sz
p360
aV600845.ss
p361
aV000823.sz
p362
aV600543.ss
p363
aV002143.sz
p364
aV900921.ss
p365
aV600865.ss
p366
aV300189.sz
p367
aV300082.sz
p368
aV000730.sz
p369
aV002094.sz
p370
aV600271.ss
p371
aV000990.sz
p372
aV300019.sz
p373
aV600988.ss
p374
aV601311.ss
p375
aV150161.sz
p376
aV162207.sz
p377
aV002657.sz
p378
aV002041.sz
p379
aV000785.sz
p380
aV000889.sz
p381
aV600708.ss
p382
aV002267.sz
p383
aV002428.sz
p384
aV002718.sz
p385
aV601238.ss
p386
aV000520.sz
p387
aV160720.sz
p388
aV600992.ss
p389
aV150097.sz
p390
aV150072.sz
p391
aV002499.sz
p392
aV150112.sz
p393
aV300144.sz
p394
aV600200.ss
p395
aV002394.sz
p396
aV002310.sz
p397
aV600275.ss
p398
aV600736.ss
p399
aV000673.sz
p400
aV002115.sz
p401
aV203008.ss
p402
aV600860.ss
p403
aV200056.sz
p404
aV000426.sz
p405
aV000801.sz
p406
aV150049.sz
p407
aV002381.sz
p408
aV600305.ss
p409
aV600230.ss
p410
aV002090.sz
p411
aV150107.sz
p412
aV900907.ss
p413
aV000412.sz
p414
aV000866.sz
p415
aV300069.sz
p416
aV000989.sz
p417
aV600313.ss
p418
aV002128.sz
p419
aV600297.ss
p420
aV600766.ss
p421
aV000852.sz
p422
aV000910.sz
p423
aV002177.sz
p424
aV002515.sz
p425
aV000559.sz
p426
aV300264.sz
p427
aV300283.sz
p428
aV159930.sz
p429
aV002604.sz
p430
aV510330.ss
p431
aV600665.ss
p432
aV002530.sz
p433
aV000039.sz
p434
aV002706.sz
p435
aV300043.sz
p436
aV300314.sz
p437
aV000536.sz
p438
aV600695.ss
p439
aV600006.ss
p440
aV002360.sz
p441
aV002084.sz
p442
aV600071.ss
p443
aV002623.sz
p444
aV002522.sz
p445
aV000976.sz
p446
aV300276.sz
p447
aV600169.ss
p448
aV600212.ss
p449
aV600486.ss
p450
aV300335.sz
p451
aV300039.sz
p452
aV600220.ss
p453
aV002045.sz
p454
aV600289.ss
p455
aV002600.sz
p456
aV166008.sz
p457
aV000988.sz
p458
aV001696.sz
p459
aV159902.sz
p460
aV000856.sz
p461
aV000830.sz
p462
aV000569.sz
p463
aV184691.sz
p464
aV600120.ss
p465
aV600057.ss
p466
aV601107.ss
p467
aV002702.sz
p468
aV000430.sz
p469
aV150154.sz
p470
aV002070.sz
p471
aV600137.ss
p472
aV002258.sz
p473
aV600472.ss
p474
aV002605.sz
p475
aV600512.ss
p476
aV601388.ss
p477
aV131809.sz
p478
aV601222.ss
p479
aV002225.sz
p480
aV000031.sz
p481
aV002713.sz
p482
aV000887.sz
p483
aV510450.ss
p484
aV300088.sz
p485
aV000825.sz
p486
aV600982.ss
p487
aV600009.ss
p488
aV300302.sz
p489
aV603002.ss
p490
aV000010.sz
p491
aV002688.sz
p492
aV600186.ss
p493
aV000721.sz
p494
aV600107.ss
p495
aV601177.ss
p496
aV600079.ss
p497
aV000338.sz
p498
aV002162.sz
p499
aV150150.sz
p500
aV002074.sz
p501
aV300137.sz
p502
aV002379.sz
p503
aV000524.sz
p504
aV600385.ss
p505
aV131805.sz
p506
aV002221.sz
p507
aV300119.sz
p508
aV002594.sz
p509
aV131811.sz
p510
aV603128.ss
p511
aV002471.sz
p512
aV002069.sz
p513
aV600085.ss
p514
aV150160.sz
p515
aV162703.sz
p516
aV000096.sz
p517
aV000608.sz
p518
aV600570.ss
p519
aV002620.sz
p520
aV000908.sz
p521
aV600672.ss
p522
aV000158.sz
p523
aV600429.ss
p524
aV002717.sz
p525
aV510220.ss
p526
aV600535.ss
p527
aV600631.ss
p528
aV000751.sz
p529
aV002165.sz
p530
aV900942.ss
p531
aV603993.ss
p532
aV510430.ss
p533
aV300151.sz
p534
aV600681.ss
p535
aV002299.sz
p536
aV900913.ss
p537
aV600762.ss
p538
aV600987.ss
p539
aV600133.ss
p540
aV000626.sz
p541
aV600750.ss
p542
aV510500.ss
p543
aV000906.sz
p544
aV600772.ss
p545
aV601857.ss
p546
aV300359.sz
p547
aV300143.sz
p548
aV500002.ss
p549
aV000597.sz
p550
aV161820.sz
p551
aV300095.sz
p552
aV000637.sz
p553
aV002650.sz
p554
aV159905.sz
p555
aV002495.sz
p556
aV002445.sz
p557
aV300278.sz
p558
aV300333.sz
p559
aV600139.ss
p560
aV000616.sz
p561
aV160916.sz
p562
aV600553.ss
p563
aV162711.sz
p564
aV300329.sz
p565
aV600550.ss
p566
aV601677.ss
p567
aV600409.ss
p568
aV601009.ss
p569
aV002088.sz
p570
aV000623.sz
p571
aV150104.sz
p572
aV300171.sz
p573
aV000968.sz
p574
aV600699.ss
p575
aV000981.sz
p576
aV600855.ss
p577
aV300339.sz
p578
aV160314.sz
p579
aV002111.sz
p580
aV300091.sz
p581
aV002505.sz
p582
aV300121.sz
p583
aV002475.sz
p584
aV600361.ss
p585
aV000062.sz
p586
aV150002.sz
p587
aV600476.ss
p588
aV002582.sz
p589
aV000612.sz
p590
aV600885.ss
p591
aV601038.ss
p592
aV000593.sz
p593
aV600328.ss
p594
aV600466.ss
p595
aV002244.sz
p596
aV300216.sz
p597
aV161713.sz
p598
aV000603.sz
p599
aV300175.sz
p600
aV600851.ss
p601
aV160211.sz
p602
aV900955.ss
p603
aV000006.sz
p604
aV600198.ss
p605
aV600355.ss
p606
aV300038.sz
p607
aV600540.ss
p608
aV163402.sz
p609
aV300105.sz
p610
aV159907.sz
p611
aV600796.ss
p612
aV150058.sz
p613
aV300108.sz
p614
aV600182.ss
p615
aV000532.sz
p616
aV600165.ss
p617
aV600075.ss
p618
aV600381.ss
p619
aV002203.sz
p620
aV600119.ss
p621
aV601158.ss
p622
aV300191.sz
p623
aV600556.ss
p624
aV002305.sz
p625
aV601880.ss
p626
aV000658.sz
p627
aV900951.ss
p628
aV200152.sz
p629
aV300148.sz
p630
aV000789.sz
p631
aV000607.sz
p632
aV600792.ss
p633
aV600803.ss
p634
aV002011.sz
p635
aV600868.ss
p636
aV300224.sz
p637
aV002353.sz
p638
aV000036.sz
p639
aV900903.ss
p640
aV300101.sz
p641
aV002551.sz
p642
aV600327.ss
p643
aV201002.ss
p644
aV000400.sz
p645
aV600774.ss
p646
aV002590.sz
p647
aV002191.sz
p648
aV000014.sz
p649
aV600825.ss
p650
aV601369.ss
p651
aV600423.ss
p652
aV000963.sz
p653
aV300348.sz
p654
aV002598.sz
p655
aV002126.sz
p656
aV000868.sz
p657
aV600880.ss
p658
aV000521.sz
p659
aV900909.ss
p660
aV600389.ss
p661
aV600299.ss
p662
aV002457.sz
p663
aV300382.sz
p664
aV600844.ss
p665
aV600618.ss
p666
aV002181.sz
p667
aV300147.sz
p668
aV002529.sz
p669
aV002443.sz
p670
aV000059.sz
p671
aV300200.sz
p672
aV600478.ss
p673
aV600979.ss
p674
aV600323.ss
p675
aV002273.sz
p676
aV300295.sz
p677
aV300237.sz
p678
aV000404.sz
p679
aV600459.ss
p680
aV300220.sz
p681
aV600406.ss
p682
aV600739.ss
p683
aV900925.ss
p684
aV000967.sz
p685
aV300078.sz
p686
aV900931.ss
p687
aV300370.sz
p688
aV000501.sz
p689
aV600784.ss
p690
aV000922.sz
p691
aV300201.sz
p692
aV600020.ss
p693
aV600375.ss
p694
aV002195.sz
p695
aV601116.ss
p696
aV150140.sz
p697
aV002163.sz
p698
aV600585.ss
p699
aV600392.ss
p700
aV002219.sz
p701
aV600848.ss
p702
aV002460.sz
p703
aV131801.sz
p704
aV600303.ss
p705
aV000679.sz
p706
aV600561.ss
p707
aV000420.sz
p708
aV161607.sz
p709
aV600623.ss
p710
aV601688.ss
p711
aV000928.sz
p712
aV000553.sz
p713
aV002661.sz
p714
aV002496.sz
p715
aV600601.ss
p716
aV002624.sz
p717
aV002155.sz
p718
aV150060.sz
p719
aV150076.sz
p720
aV200869.sz
p721
aV500029.ss
p722
aV600398.ss
p723
aV002344.sz
p724
aV000793.sz
p725
aV002385.sz
p726
aV002046.sz
p727
aV002400.sz
p728
aV300182.sz
p729
aV204007.ss
p730
aV900948.ss
p731
aV002207.sz
p732
aV600317.ss
p733
aV600679.ss
p734
aV150048.sz
p735
aV000416.sz
p736
aV002122.sz
p737
aV600418.ss
p738
aV580023.ss
p739
aV002723.sz
p740
aV300352.sz
p741
aV600743.ss
p742
aV002118.sz
p743
aV600605.ss
p744
aV000880.sz
p745
aV002427.sz
p746
aV600152.ss
p747
aV300197.sz
p748
aV002436.sz
p749
aV002302.sz
p750
aV600101.ss
p751
aV500006.ss
p752
aV150018.sz
p753
aV000692.sz
p754
aV000993.sz
p755
aV600859.ss
p756
aV002703.sz
p757
aV300031.sz
p758
aV300269.sz
p759
aV000502.sz
p760
aV002050.sz
p761
aV162006.sz
p762
aV002019.sz
p763
aV002361.sz
p764
aV600835.ss
p765
aV600662.ss
p766
aV300239.sz
p767
aV600640.ss
p768
aV002335.sz
p769
aV150009.sz
p770
aV300072.sz
p771
aV600536.ss
p772
aV002306.sz
p773
aV002642.sz
p774
aV160130.sz
p775
aV600162.ss
p776
aV000661.sz
p777
aV002666.sz
p778
aV000767.sz
p779
aV150053.sz
p780
aV600737.ss
p781
aV002687.sz
p782
aV002458.sz
p783
aV600285.ss
p784
aV600842.ss
p785
aV000892.sz
p786
aV601618.ss
p787
aV038015.sz
p788
aV002532.sz
p789
aV002368.sz
p790
aV002510.sz
p791
aV600807.ss
p792
aV000782.sz
p793
aV002338.sz
p794
aV150078.sz
p795
aV184722.sz
p796
aV300085.sz
p797
aV300291.sz
p798
aV600081.ss
p799
aV131911.sz
p800
aV150052.sz
p801
aV600249.ss
p802
aV200706.sz
p803
aV002563.sz
p804
aV600747.ss
p805
aV000875.sz
p806
aV300207.sz
p807
aV300055.sz
p808
aV002285.sz
p809
aV600809.ss
p810
aV002683.sz
p811
aV600094.ss
p812
aV159909.sz
p813
aV002665.sz
p814
aV600520.ss
p815
aV300336.sz
p816
aV160515.sz
p817
aV600799.ss
p818
aV000902.sz
p819
aV600080.ss
p820
aV150029.sz
p821
aV600351.ss
p822
aV603123.ss
p823
aV300081.sz
p824
aV002309.sz
p825
aV000713.sz
p826
aV600190.ss
p827
aV600798.ss
p828
aV160617.sz
p829
aV300381.sz
p830
aV300034.sz
p831
aV000528.sz
p832
aV150023.sz
p833
aV300111.sz
p834
aV600566.ss
p835
aV002277.sz
p836
aV002357.sz
p837
aV500008.ss
p838
aV002340.sz
p839
aV000556.sz
p840
aV601225.ss
p841
aV300199.sz
p842
aV204003.ss
p843
aV600685.ss
p844
aV002022.sz
p845
aV002098.sz
p846
aV000633.sz
p847
aV002654.sz
p848
aV002517.sz
p849
aV000699.sz
p850
aV600018.ss
p851
aV300133.sz
p852
aV002373.sz
p853
aV200020.sz
p854
aV000717.sz
p855
aV150007.sz
p856
aV204091.ss
p857
aV002674.sz
p858
aV600505.ss
p859
aV002367.sz
p860
aV200055.sz
p861
aV201009.ss
p862
aV300233.sz
p863
aV000028.sz
p864
aV002655.sz
p865
aV300048.sz
p866
aV200418.sz
p867
aV600012.ss
p868
aV002130.sz
p869
aV300026.sz
p870
aV002705.sz
p871
aV601218.ss
p872
aV000725.sz
p873
aV002275.sz
p874
aV900935.ss
p875
aV600581.ss
p876
aV600627.ss
p877
aV601100.ss
p878
aV600729.ss
p879
aV600498.ss
p880
aV002054.sz
p881
aV000888.sz
p882
aV600532.ss
p883
aV601002.ss
p884
aV002320.sz
p885
aV300010.sz
p886
aV000548.sz
p887
aV300094.sz
p888
aV600253.ss
p889
aV600069.ss
p890
aV600422.ss
p891
aV000558.sz
p892
aV600228.ss
p893
aV600629.ss
p894
aV000613.sz
p895
aV000551.sz
p896
aV600281.ss
p897
aV002030.sz
p898
aV002017.sz
p899
aV600295.ss
p900
aV002521.sz
p901
aV000069.sz
p902
aV150066.sz
p903
aV200550.sz
p904
aV000768.sz
p905
aV002010.sz
p906
aV300362.sz
p907
aV200058.sz
p908
aV600647.ss
p909
aV000017.sz
p910
aV160215.sz
p911
aV002114.sz
p912
aV300209.sz
p913
aV002226.sz
p914
aV150027.sz
p915
aV600813.ss
p916
aV300022.sz
p917
aV601006.ss
p918
aV002212.sz
p919
aV300098.sz
p920
aV161911.sz
p921
aV600231.ss
p922
aV000523.sz
p923
aV200505.sz
p924
aV300244.sz
p925
aV000428.sz
p926
aV601566.ss
p927
aV300181.sz
p928
aV300321.sz
p929
aV002579.sz
p930
aV300167.sz
p931
aV200016.sz
p932
aV600675.ss
p933
aV000571.sz
p934
aV200570.sz
p935
aV002432.sz
p936
aV000806.sz
p937
aV300265.sz
p938
aV300343.sz
p939
aV600715.ss
p940
aV600768.ss
p941
aV300064.sz
p942
aV600156.ss
p943
aV000998.sz
p944
aV002482.sz
p945
aV601989.ss
p946
aV002096.sz
p947
aV160613.sz
p948
aV000032.sz
p949
aV002336.sz
p950
aV600236.ss
p951
aV002467.sz
p952
aV000045.sz
p953
aV000527.sz
p954
aV000960.sz
p955
aV600086.ss
p956
aV600831.ss
p957
aV600569.ss
p958
aV000023.sz
p959
aV000589.sz
p960
aV002541.sz
p961
aV002555.sz
p962
aV600671.ss
p963
aV600599.ss
p964
aV300285.sz
p965
aV000033.sz
p966
aV159923.sz
p967
aV600036.ss
p968
aV600711.ss
p969
aV002369.sz
p970
aV203016.ss
p971
aV002213.sz
p972
aV002534.sz
p973
aV002230.sz
p974
aV600700.ss
p975
aV002314.sz
p976
aV300163.sz
p977
aV600026.ss
p978
aV600966.ss
p979
aV600136.ss
p980
aV600519.ss
p981
aV600704.ss
p982
aV002631.sz
p983
aV300067.sz
p984
aV161010.sz
p985
aV000665.sz
p986
aV600722.ss
p987
aV600496.ss
p988
aV601991.ss
p989
aV300089.sz
p990
aV601808.ss
p991
aV600481.ss
p992
aV000546.sz
p993
aV600983.ss
p994
aV600067.ss
p995
aV600509.ss
p996
aV002610.sz
p997
aV600978.ss
p998
aV300140.sz
p999
aV000850.sz
p1000
aV300309.sz
p1001
aV002121.sz
p1002
aV300262.sz
p1003
aV000027.sz
p1004
aV601186.ss
p1005
aV002653.sz
p1006
aV203054.ss
p1007
aV002538.sz
p1008
aV002613.sz
p1009
aV002520.sz
p1010
aV002324.sz
p1011
aV600090.ss
p1012
aV000615.sz
p1013
aV600058.ss
p1014
aV600109.ss
p1015
aV002518.sz
p1016
aV601515.ss
p1017
aV000408.sz
p1018
aV002446.sz
p1019
aV600818.ss
p1020
aV002696.sz
p1021
aV002008.sz
p1022
aV203041.ss
p1023
aV600485.ss
p1024
aV300051.sz
p1025
aV900929.ss
p1026
aV000848.sz
p1027
aV300296.sz
p1028
aV600894.ss
p1029
aV600691.ss
p1030
aV600335.ss
p1031
aV600279.ss
p1032
aV002080.sz
p1033
aV600611.ss
p1034
aV000909.sz
p1035
aV600788.ss
p1036
aV300092.sz
p1037
aV000419.sz
p1038
aV600428.ss
p1039
aV600267.ss
p1040
aV002199.sz
p1041
aV600128.ss
p1042
aV002151.sz
p1043
aV600664.ss
p1044
aV002134.sz
p1045
aV603688.ss
p1046
aV600210.ss
p1047
aV002049.sz
p1048
aV600714.ss
p1049
aV000488.sz
p1050
aV184699.sz
p1051
aV600643.ss
p1052
aV000797.sz
p1053
aV000652.sz
p1054
aV000013.sz
p1055
aV002426.sz
p1056
aV200026.sz
p1057
aV600273.ss
p1058
aV159934.sz
p1059
aV600984.ss
p1060
aV600378.ss
p1061
aV300325.sz
p1062
aV900918.ss
p1063
aV002511.sz
p1064
aV603699.ss
p1065
aV002026.sz
p1066
aV600763.ss
p1067
aV300152.sz
p1068
aV300331.sz
p1069
aV300258.sz
p1070
aV600143.ss
p1071
aV601668.ss
p1072
aV000953.sz
p1073
aV511880.ss
p1074
aV600206.ss
p1075
aV002397.sz
p1076
aV600263.ss
p1077
aV600088.ss
p1078
aV600038.ss
p1079
aV600668.ss
p1080
aV000587.sz
p1081
aV300158.sz
p1082
aV002016.sz
p1083
aV600111.ss
p1084
aV002009.sz
p1085
aV002616.sz
p1086
aV603308.ss
p1087
aV600578.ss
p1088
aV600597.ss
p1089
aV000957.sz
p1090
aV601126.ss
p1091
aV000997.sz
p1092
aV600232.ss
p1093
aV203021.ss
p1094
aV150040.sz
p1095
aV600008.ss
p1096
aV201005.ss
p1097
aV000803.sz
p1098
aV002253.sz
p1099
aV300375.sz
p1100
aV002101.sz
p1101
aV000876.sz
p1102
aV160807.sz
p1103
aV600166.ss
p1104
aV159906.sz
p1105
aV300109.sz
p1106
aV002662.sz
p1107
aV159911.sz
p1108
aV600390.ss
p1109
aV600255.ss
p1110
aV000035.sz
p1111
aV300312.sz
p1112
aV600477.ss
p1113
aV601898.ss
p1114
aV000695.sz
p1115
aV002393.sz
p1116
aV000542.sz
p1117
aV002034.sz
p1118
aV000759.sz
p1119
aV600063.ss
p1120
aV300068.sz
p1121
aV201001.ss
p1122
aV600167.ss
p1123
aV600016.ss
p1124
aV500058.ss
p1125
aV000078.sz
p1126
aV600004.ss
p1127
aV601818.ss
p1128
aV150129.sz
p1129
aV002606.sz
p1130
aV200029.sz
p1131
aV518880.ss
p1132
aV002698.sz
p1133
aV150137.sz
p1134
aV002438.sz
p1135
aV002042.sz
p1136
aV159917.sz
p1137
aV184692.sz
p1138
aV603077.ss
p1139
aV600648.ss
p1140
aV166001.sz
p1141
aV600131.ss
p1142
aV300240.sz
p1143
aV002332.sz
p1144
aV300185.sz
p1145
aV184706.sz
p1146
aV150056.sz
p1147
aV002491.sz
p1148
aV150123.sz
p1149
aV300138.sz
p1150
aV150077.sz
p1151
aV002141.sz
p1152
aV000737.sz
p1153
aV160119.sz
p1154
aV900939.ss
p1155
aV000776.sz
p1156
aV002682.sz
p1157
aV002058.sz
p1158
aV002254.sz
p1159
aV600115.ss
p1160
aV601890.ss
p1161
aV600776.ss
p1162
aV600007.ss
p1163
aV002189.sz
p1164
aV002007.sz
p1165
aV000656.sz
p1166
aV601313.ss
p1167
aV150156.sz
p1168
aV300373.sz
p1169
aV300129.sz
p1170
aV600562.ss
p1171
aV000625.sz
p1172
aV601801.ss
p1173
aV600802.ss
p1174
aV002636.sz
p1175
aV150133.sz
p1176
aV002463.sz
p1177
aV300256.sz
p1178
aV300355.sz
p1179
aV900902.ss
p1180
aV002234.sz
p1181
aV002200.sz
p1182
aV600980.ss
p1183
aV600239.ss
p1184
aV002545.sz
p1185
aV513100.ss
p1186
aV002420.sz
p1187
aV002614.sz
p1188
aV600893.ss
p1189
aV600876.ss
p1190
aV150094.sz
p1191
aV000985.sz
p1192
aV159927.sz
p1193
aV002649.sz
p1194
aV600962.ss
p1195
aV601766.ss
p1196
aV000948.sz
p1197
aV300347.sz
p1198
aV600241.ss
p1199
aV300107.sz
p1200
aV002659.sz
p1201
aV600307.ss
p1202
aV600878.ss
p1203
aV000716.sz
p1204
aV000816.sz
p1205
aV600410.ss
p1206
aV002175.sz
p1207
aV900905.ss
p1208
aV600462.ss
p1209
aV002204.sz
p1210
aV000638.sz
p1211
aV150105.sz
p1212
aV600546.ss
p1213
aV300236.sz
p1214
aV300281.sz
p1215
aV600764.ss
p1216
aV150087.sz
p1217
aV167901.sz
p1218
aV000157.sz
p1219
aV002301.sz
p1220
aV150144.sz
p1221
aV510620.ss
p1222
aV002679.sz
p1223
aV203007.ss
p1224
aV184688.sz
p1225
aV000923.sz
p1226
aV160805.sz
p1227
aV000818.sz
p1228
aV600970.ss
p1229
aV150090.sz
p1230
aV002569.sz
p1231
aV163821.sz
p1232
aV002079.sz
p1233
aV002220.sz
p1234
aV300040.sz
p1235
aV600886.ss
p1236
aV000828.sz
p1237
aV002692.sz
p1238
aV000691.sz
p1239
aV161019.sz
p1240
aV150141.sz
p1241
aV002291.sz
p1242
aV600259.ss
p1243
aV150042.sz
p1244
aV580019.ss
p1245
aV601007.ss
p1246
aV000729.sz
p1247
aV600495.ss
p1248
aV160610.sz
p1249
aV600615.ss
p1250
aV000565.sz
p1251
aV150036.sz
p1252
aV002193.sz
p1253
aV600122.ss
p1254
aV000068.sz
p1255
aV600782.ss
p1256
aV601258.ss
p1257
aV600373.ss
p1258
aV002584.sz
p1259
aV580017.ss
p1260
aV163415.sz
p1261
aV300122.sz
p1262
aV600161.ss
p1263
aV000153.sz
p1264
aV601333.ss
p1265
aV600470.ss
p1266
aV203045.ss
p1267
aV000971.sz
p1268
aV002216.sz
p1269
aV600882.ss
p1270
aV300300.sz
p1271
aV300183.sz
p1272
aV002375.sz
p1273
aV000689.sz
p1274
aV600491.ss
p1275
aV203033.ss
p1276
aV161821.sz
p1277
aV159903.sz
p1278
aV300299.sz
p1279
aV300044.sz
p1280
aV002012.sz
p1281
aV600356.ss
p1282
aV000583.sz
p1283
aV002250.sz
p1284
aV600202.ss
p1285
aV000905.sz
p1286
aV150070.sz
p1287
aV600730.ss
p1288
aV159929.sz
p1289
aV900927.ss
p1290
aV300146.sz
p1291
aV600277.ss
p1292
aV600593.ss
p1293
aV000733.sz
p1294
aV002092.sz
p1295
aV600862.ss
p1296
aV500007.ss
p1297
aV600582.ss
p1298
aV600435.ss
p1299
aV600184.ss
p1300
aV600733.ss
p1301
aV600794.ss
p1302
aV002700.sz
p1303
aV002715.sz
p1304
aV300063.sz
p1305
aV600684.ss
p1306
aV150111.sz
p1307
aV601919.ss
p1308
aV300001.sz
p1309
aV000753.sz
p1310
aV300079.sz
p1311
aV300211.sz
p1312
aV603167.ss
p1313
aV600310.ss
p1314
aV203051.ss
p1315
aV600420.ss
p1316
aV000710.sz
p1317
aV601139.ss
p1318
aV600633.ss
p1319
aV000901.sz
p1320
aV601717.ss
p1321
aV900957.ss
p1322
aV900940.ss
p1323
aV511210.ss
p1324
aV002061.sz
p1325
aV002167.sz
p1326
aV300316.sz
p1327
aV159919.sz
p1328
aV000531.sz
p1329
aV150089.sz
p1330
aV000578.sz
p1331
aV600076.ss
p1332
aV002559.sz
p1333
aV600329.ss
p1334
aV002577.sz
p1335
aV600436.ss
p1336
aV600723.ss
p1337
aV900901.ss
p1338
aV150109.sz
p1339
aV600315.ss
p1340
aV600760.ss
p1341
aV002602.sz
p1342
aV000961.sz
p1343
aV150010.sz
p1344
aV204004.ss
p1345
aV000668.sz
p1346
aV002449.sz
p1347
aV300274.sz
p1348
aV600400.ss
p1349
aV000549.sz
p1350
aV002568.sz
p1351
aV300304.sz
p1352
aV600068.ss
p1353
aV002145.sz
p1354
aV002497.sz
p1355
aV600192.ss
p1356
aV164702.sz
p1357
aV002284.sz
p1358
aV600331.ss
p1359
aV600095.ss
p1360
aV600552.ss
p1361
aV600325.ss
p1362
aV000936.sz
p1363
aV510900.ss
p1364
aV600432.ss
p1365
aV601608.ss
p1366
aV300378.sz
p1367
aV900923.ss
p1368
aV000975.sz
p1369
aV150028.sz
p1370
aV600054.ss
p1371
aV600003.ss
p1372
aV000983.sz
p1373
aV000517.sz
p1374
aV002113.sz
p1375
aV600652.ss
p1376
aV600488.ss
p1377
aV600511.ss
p1378
aV300179.sz
p1379
aV300252.sz
p1380
aV600105.ss
p1381
aV601001.ss
p1382
aV300226.sz
p1383
aV600377.ss
p1384
aV150127.sz
p1385
aV002476.sz
p1386
aV000708.sz
p1387
aV300126.sz
p1388
aV000920.sz
p1389
aV164808.sz
p1390
aV150032.sz
p1391
aV002356.sz
p1392
aV300243.sz
p1393
aV600217.ss
p1394
aV002033.sz
p1395
aV600853.ss
p1396
aV600644.ss
p1397
aV512010.ss
p1398
aV000727.sz
p1399
aV300366.sz
p1400
aV165309.sz
p1401
aV300186.sz
p1402
aV002117.sz
p1403
aV000790.sz
p1404
aV300018.sz
p1405
aV002468.sz
p1406
aV002171.sz
p1407
aV600180.ss
p1408
aV600638.ss
p1409
aV002628.sz
p1410
aV002592.sz
p1411
aV300251.sz
p1412
aV600148.ss
p1413
aV000410.sz
p1414
aV002588.sz
p1415
aV600383.ss
p1416
aV600311.ss
p1417
aV200011.sz
p1418
aV300193.sz
p1419
aV160607.sz
p1420
aV002725.sz
p1421
aV300247.sz
p1422
aV000683.sz
p1423
aV601169.ss
p1424
aV002472.sz
p1425
aV600683.ss
p1426
aV002125.sz
p1427
aV000090.sz
p1428
aV600126.ss
p1429
aV600864.ss
p1430
aV002514.sz
p1431
aV000937.sz
p1432
aV600884.ss
p1433
aV000890.sz
p1434
aV300231.sz
p1435
aV200726.sz
p1436
aV600829.ss
p1437
aV900914.ss
p1438
aV002348.sz
p1439
aV600499.ss
p1440
aV002238.sz
p1441
aV200771.sz
p1442
aV600539.ss
p1443
aV900910.ss
p1444
aV601233.ss
p1445
aV600223.ss
p1446
aV002487.sz
p1447
aV002351.sz
p1448
aV000621.sz
p1449
aV300115.sz
p1450
aV600656.ss
p1451
aV160105.sz
p1452
aV600827.ss
p1453
aV600280.ss
p1454
aV002419.sz
p1455
aV002168.sz
p1456
aV600687.ss
p1457
aV601216.ss
p1458
aV600734.ss
p1459
aV300014.sz
p1460
aV580013.ss
p1461
aV300006.sz
p1462
aV600135.ss
p1463
aV000619.sz
p1464
aV000627.sz
p1465
aV600538.ss
p1466
aV500159.sz
p1467
aV000561.sz
p1468
aV002572.sz
p1469
aV600965.ss
p1470
aV000060.sz
p1471
aV601999.ss
p1472
aV300380.sz
p1473
aV002323.sz
p1474
aV000779.sz
p1475
aV000591.sz
p1476
aV002228.sz
p1477
aV002711.sz
p1478
aV510061.ss
p1479
aV600482.ss
p1480
aV000552.sz
p1481
aV002371.sz
p1482
aV300056.sz
p1483
aV000570.sz
p1484
aV300177.sz
p1485
aV038016.sz
p1486
aV165516.sz
p1487
aV600589.ss
p1488
aV002506.sz
p1489
aV002246.sz
p1490
aV600362.ss
p1491
aV131806.sz
p1492
aV300024.sz
p1493
aV002596.sz
p1494
aV600022.ss
p1495
aV002632.sz
p1496
aV000913.sz
p1497
aV150147.sz
p1498
aV600515.ss
p1499
aV600387.ss
p1500
aV002508.sz
p1501
aV002395.sz
p1502
aV600501.ss
p1503
aV002327.sz
p1504
aV150051.sz
p1505
aV002575.sz
p1506
aV200468.sz
p1507
aV000802.sz
p1508
aV600563.ss
p1509
aV002389.sz
p1510
aV000757.sz
p1511
aV510700.ss
p1512
aV300156.sz
p1513
aV300215.sz
p1514
aV600897.ss
p1515
aV600359.ss
p1516
aV300052.sz
p1517
aV002633.sz
p1518
aV600460.ss
p1519
aV601518.ss
p1520
aV601777.ss
p1521
aV600780.ss
p1522
aV600037.ss
p1523
aV150062.sz
p1524
aV300157.sz
p1525
aV000605.sz
p1526
aV510120.ss
p1527
aV160910.sz
p1528
aV600999.ss
p1529
aV002307.sz
p1530
aV900953.ss
p1531
aV510030.ss
p1532
aV200030.sz
p1533
aV600609.ss
p1534
aV002065.sz
p1535
aV600622.ss
p1536
aV600790.ss
p1537
aV600196.ss
p1538
aV300103.sz
p1539
aV601028.ss
p1540
aV600590.ss
p1541
aV200053.sz
p1542
aV000812.sz
p1543
aV600718.ss
p1544
aV600235.ss
p1545
aV600870.ss
p1546
aV000882.sz
p1547
aV000838.sz
p1548
aV600607.ss
p1549
aV000639.sz
p1550
aV601208.ss
p1551
aV002627.sz
p1552
aV601929.ss
p1553
aV600030.ss
p1554
aV510280.ss
p1555
aV600770.ss
p1556
aV600522.ss
p1557
aV601886.ss
p1558
aV600395.ss
p1559
aV002015.sz
p1560
aV203019.ss
p1561
aV300369.sz
p1562
aV300377.sz
p1563
aV300195.sz
p1564
aV002402.sz
p1565
aV002208.sz
p1566
aV600839.ss
p1567
aV200761.sz
p1568
aV600594.ss
p1569
aV002274.sz
p1570
aV600064.ss
p1571
aV000545.sz
p1572
aV300222.sz
p1573
aV000406.sz
p1574
aV600011.ss
p1575
aV002355.sz
p1576
aV600321.ss
p1577
aV002437.sz
p1578
aV002557.sz
p1579
aV000965.sz
p1580
aV300261.sz
p1581
aV600099.ss
p1582
aV600227.ss
p1583
aV200012.sz
p1584
aV300065.sz
p1585
aV002454.sz
p1586
aV002288.sz
p1587
aV002197.sz
p1588
aV300192.sz
p1589
aV002052.sz
p1590
aV600786.ss
p1591
aV300002.sz
p1592
aV601558.ss
p1593
aV000007.sz
p1594
aV000018.sz
p1595
aV510300.ss
p1596
aV002239.sz
p1597
aV000663.sz
p1598
aV300324.sz
p1599
aV600060.ss
p1600
aV002535.sz
p1601
aV510270.ss
p1602
aV159910.sz
p1603
aV000541.sz
p1604
aV002401.sz
p1605
aV600857.ss
p1606
aV600015.ss
p1607
aV000005.sz
p1608
aV600287.ss
p1609
aV163819.sz
p1610
aV002527.sz
p1611
aV600840.ss
p1612
aV000858.sz
p1613
aV300293.sz
p1614
aV600710.ss
p1615
aV600820.ss
p1616
aV601268.ss
p1617
aV000513.sz
p1618
aV000019.sz
p1619
aV002102.sz
p1620
aV600050.ss
p1621
aV600889.ss
p1622
aV002387.sz
p1623
aV600805.ss
p1624
aV300130.sz
p1625
aV002512.sz
p1626
aV000651.sz
p1627
aV600565.ss
p1628
aV600586.ss
p1629
aV203049.ss
p1630
aV150020.sz
p1631
aV600110.ss
p1632
aV600573.ss
p1633
aV002249.sz
p1634
aV000519.sz
p1635
aV150055.sz
p1636
aV002571.sz
p1637
aV600744.ss
p1638
aV002464.sz
p1639
aV510190.ss
p1640
aV131802.sz
p1641
aV000959.sz
p1642
aV002721.sz
p1643
aV000671.sz
p1644
aV150115.sz
p1645
aV000786.sz
p1646
aV300083.sz
p1647
aV900920.ss
p1648
aV150098.sz
p1649
aV600265.ss
p1650
aV300248.sz
p1651
aV000001.sz
p1652
aV600801.ss
p1653
aV002040.sz
p1654
aV300116.sz
p1655
aV002635.sz
p1656
aV000655.sz
p1657
aV002095.sz
p1658
aV002342.sz
p1659
aV600528.ss
p1660
aV510130.ss
p1661
aV600709.ss
p1662
aV600072.ss
p1663
aV002159.sz
p1664
aV600823.ss
p1665
aV000535.sz
p1666
aV000758.sz
p1667
aV580020.ss
p1668
aV600871.ss
p1669
aV002553.sz
p1670
aV600577.ss
p1671
aV000687.sz
p1672
aV204001.ss
p1673
aV600832.ss
p1674
aV002678.sz
p1675
aV600740.ss
p1676
aV600005.ss
p1677
aV000554.sz
p1678
aV600757.ss
p1679
aV600677.ss
p1680
aV600352.ss
p1681
aV200725.sz
p1682
aV600660.ss
p1683
aV200019.sz
p1684
aV000573.sz
p1685
aV165313.sz
p1686
aV600642.ss
p1687
aV000595.sz
p1688
aV300228.sz
p1689
aV300009.sz
p1690
aV600703.ss
p1691
aV300150.sz
p1692
aV002685.sz
p1693
aV300376.sz
p1694
aV600705.ss
p1695
aV002334.sz
p1696
aV002137.sz
p1697
aV600312.ss
p1698
aV159935.sz
p1699
aV002176.sz
p1700
aV900932.ss
p1701
aV160220.sz
p1702
aV000413.sz
p1703
aV600767.ss
p1704
aV002182.sz
p1705
aV000021.sz
p1706
aV600836.ss
p1707
aV002048.sz
p1708
aV300134.sz
p1709
aV300357.sz
p1710
aV160621.sz
p1711
aV002056.sz
p1712
aV150083.sz
p1713
aV300173.sz
p1714
aV600125.ss
p1715
aV300020.sz
p1716
aV300379.sz
p1717
aV002641.sz
p1718
aV002707.sz
p1719
aV600881.ss
p1720
aV600625.ss
p1721
aV600658.ss
p1722
aV600530.ss
p1723
aV184690.sz
p1724
aV002440.sz
p1725
aV600251.ss
p1726
aV601789.ss
p1727
aV601992.ss
p1728
aV000820.sz
p1729
aV600348.ss
p1730
aV510110.ss
p1731
aV000667.sz
p1732
aV000979.sz
p1733
aV600603.ss
p1734
aV001896.sz
p1735
aV600218.ss
p1736
aV002014.sz
p1737
aV000601.sz
p1738
aV000877.sz
p1739
aV002502.sz
p1740
aV000048.sz
p1741
aV300205.sz
p1742
aV600283.ss
p1743
aV162605.sz
p1744
aV002071.sz
p1745
aV300188.sz
p1746
aV603288.ss
p1747
aV580014.ss
p1748
aV002259.sz
p1749
aV601288.ss
p1750
aV002116.sz
p1751
aV002560.sz
p1752
aV002224.sz
p1753
aV000952.sz
p1754
aV600753.ss
p1755
aV600233.ss
p1756
aV000886.sz
p1757
aV002038.sz
p1758
aV600469.ss
p1759
aV163412.sz
p1760
aV600173.ss
p1761
aV600626.ss
p1762
aV603366.ss
p1763
aV300015.sz
p1764
aV600151.ss
p1765
aV002712.sz
p1766
aV300323.sz
p1767
aV600724.ss
p1768
aV002025.sz
p1769
aV150073.sz
p1770
aV603003.ss
p1771
aV000897.sz
p1772
aV002430.sz
p1773
aV002235.sz
p1774
aV000631.sz
p1775
aV150069.sz
p1776
aV300025.sz
p1777
aV600526.ss
p1778
aV300267.sz
p1779
aV600759.ss
p1780
aV150086.sz
p1781
aV002676.sz
p1782
aV200022.sz
p1783
aV159922.sz
p1784
aV203009.ss
p1785
aV002365.sz
p1786
aV000089.sz
p1787
aV300180.sz
p1788
aV200057.sz
p1789
aV600117.ss
p1790
aV002639.sz
p1791
aV002037.sz
p1792
aV002091.sz
p1793
aV300311.sz
p1794
aV002693.sz
p1795
aV300217.sz
p1796
aV002129.sz
p1797
aV000685.sz
p1798
aV002263.sz
p1799
aV900906.ss
p1800
aV601699.ss
p1801
aV300112.sz
p1802
aV150011.sz
p1803
aV300161.sz
p1804
aV000798.sz
p1805
aV300341.sz
p1806
aV600155.ss
p1807
aV000750.sz
p1808
aV002668.sz
p1809
aV161119.sz
p1810
aV159921.sz
p1811
aV002232.sz
p1812
aV164205.sz
p1813
aV002021.sz
p1814
aV600188.ss
p1815
aV002107.sz
p1816
aV601901.ss
p1817
aV601339.ss
p1818
aV300287.sz
p1819
aV603000.ss
p1820
aV000002.sz
p1821
aV600548.ss
p1822
aV000697.sz
p1823
aV300315.sz
p1824
aV002066.sz
p1825
aV600981.ss
p1826
aV160717.sz
p1827
aV300235.sz
p1828
aV300145.sz
p1829
aV150101.sz
p1830
aV300298.sz
p1831
aV600213.ss
p1832
aV002523.sz
p1833
aV300365.sz
p1834
aV000498.sz
p1835
aV002383.sz
p1836
aV201010.ss
p1837
aV600288.ss
p1838
aV600898.ss
p1839
aV900936.ss
p1840
aV002106.sz
p1841
aV600873.ss
p1842
aV002133.sz
p1843
aV000707.sz
p1844
aV600121.ss
p1845
aV000878.sz
p1846
aV000927.sz
p1847
aV600779.ss
p1848
aV000917.sz
p1849
aV601106.ss
p1850
aV600370.ss
p1851
aV600366.ss
p1852
aV002186.sz
p1853
aV600896.ss
p1854
aV002694.sz
p1855
aV002708.sz
p1856
aV002153.sz
p1857
aV300087.sz
p1858
aV600408.ss
p1859
aV200018.sz
p1860
aV300328.sz
p1861
aV600340.ss
p1862
aV000969.sz
p1863
aV300210.sz
p1864
aV600358.ss
p1865
aV002110.sz
p1866
aV200413.sz
p1867
aV000011.sz
p1868
aV300090.sz
p1869
aV002503.sz
p1870
aV600810.ss
p1871
aV002075.sz
p1872
aV300361.sz
p1873
aV002331.sz
p1874
aV600187.ss
p1875
aV002378.sz
p1876
aV300059.sz
p1877
aV159920.sz
p1878
aV000525.sz
p1879
aV184701.sz
p1880
aV131810.sz
p1881
aV601166.ss
p1882
aV002003.sz
p1883
aV002214.sz
p1884
aV600308.ss
p1885
aV600084.ss
p1886
aV600129.ss
p1887
aV580024.ss
p1888
aV000939.sz
p1889
aV000962.sz
p1890
aV002716.sz
p1891
aV300327.sz
p1892
aV600673.ss
p1893
aV002068.sz
p1894
aV002349.sz
p1895
aV000099.sz
p1896
aV601928.ss
p1897
aV150059.sz
p1898
aV204028.ss
p1899
aV200037.sz
p1900
aV000700.sz
p1901
aV300297.sz
p1902
aV300330.sz
p1903
aV600183.ss
p1904
aV510660.ss
p1905
aV600319.ss
p1906
aV000100.sz
p1907
aV159900.sz
p1908
aV300104.sz
p1909
aV000418.sz
p1910
aV000780.sz
p1911
aV600118.ss
p1912
aV600416.ss
p1913
aV002202.sz
p1914
aV000955.sz
p1915
aV002270.sz
p1916
aV002036.sz
p1917
aV300190.sz
p1918
aV600680.ss
p1919
aV000025.sz
p1920
aV300075.sz
p1921
aV164815.sz
p1922
aV002251.sz
p1923
aV002317.sz
p1924
aV600132.ss
p1925
aV601390.ss
p1926
aV150143.sz
p1927
aV600653.ss
p1928
aV150016.sz
p1929
aV300142.sz
p1930
aV300259.sz
p1931
aV600446.ss
p1932
aV000760.sz
p1933
aV002236.sz
p1934
aV601798.ss
p1935
aV002587.sz
p1936
aV500003.ss
p1937
aV002651.sz
p1938
aV002444.sz
p1939
aV600888.ss
p1940
aV600092.ss
p1941
aV000919.sz
p1942
aV600368.ss
p1943
aV002283.sz
p1944
aV000617.sz
p1945
aV600138.ss
p1946
aV600824.ss
p1947
aV200003.sz
p1948
aV300005.sz
p1949
aV000973.sz
p1950
aV000015.sz
p1951
aV002550.sz
p1952
aV603333.ss
p1953
aV510610.ss
p1954
aV002127.sz
p1955
aV166006.sz
p1956
aV600781.ss
p1957
aV900908.ss
p1958
aV002190.sz
p1959
aV600177.ss
p1960
aV601113.ss
p1961
aV600619.ss
p1962
aV150012.sz
p1963
aV000596.sz
p1964
aV002670.sz
p1965
aV002210.sz
p1966
aV300120.sz
p1967
aV300169.sz
p1968
aV002583.sz
p1969
aV601678.ss
p1970
aV300187.sz
p1971
aV600339.ss
p1972
aV601058.ss
p1973
aV600096.ss
p1974
aV600692.ss
p1975
aV000592.sz
p1976
aV002287.sz
p1977
aV002083.sz
p1978
aV002493.sz
p1979
aV600732.ss
p1980
aV000026.sz
p1981
aV300165.sz
p1982
aV000635.sz
p1983
aV601616.ss
p1984
aV002690.sz
p1985
aV600761.ss
p1986
aV002672.sz
p1987
aV300257.sz
p1988
aV600333.ss
p1989
aV160716.sz
p1990
aV000832.sz
p1991
aV000735.sz
p1992
aV600261.ss
p1993
aV000602.sz
p1994
aV161610.sz
p1995
aV600426.ss
p1996
aV000813.sz
p1997
aV600800.ss
p1998
aV002413.sz
p1999
aV002243.sz
p2000
aV200530.sz
p2001
aV002044.sz
p2002
aV000929.sz
p2003
aV150003.sz
p2004
aV000540.sz
p2005
aV002180.sz
p2006
aV002489.sz
p2007
aV002417.sz
p2008
aV600600.ss
p2009
aV000562.sz
p2010
aV002422.sz
p2011
aV601137.ss
p2012
aV600702.ss
p2013
aV300154.sz
p2014
aV000333.sz
p2015
aV002154.sz
p2016
aV000987.sz
p2017
aV002660.sz
p2018
aV002544.sz
p2019
aV000606.sz
p2020
aV161614.sz
p2021
aV000539.sz
p2022
aV510290.ss
p2023
aV002179.sz
p2024
aV002391.sz
p2025
aV160311.sz
p2026
aV600720.ss
p2027
aV000584.sz
p2028
aV600475.ss
p2029
aV002352.sz
p2030
aV603555.ss
p2031
aV002423.sz
p2032
aV300100.sz
p2033
aV002411.sz
p2034
aV000037.sz
p2035
aV002370.sz
p2036
aV200986.sz
p2037
aV000719.sz
p2038
aV200015.sz
p2039
aV200513.sz
p2040
aV000951.sz
p2041
aV201003.ss
p2042
aV300225.sz
p2043
aV002382.sz
p2044
aV600621.ss
p2045
aV002269.sz
p2046
aV600000.ss
p2047
aV510210.ss
p2048
aV600029.ss
p2049
aV000622.sz
p2050
aV002303.sz
p2051
aV159925.sz
p2052
aV600376.ss
p2053
aV150019.sz
p2054
aV000921.sz
p2055
aV163302.sz
p2056
aV603766.ss
p2057
aV600634.ss
p2058
aV002644.sz
p2059
aV000693.sz
p2060
aV002157.sz
p2061
aV601996.ss
p2062
aV000676.sz
p2063
aV600612.ss
p2064
aV600158.ss
p2065
aV601600.ss
p2066
aV600620.ss
p2067
aV000063.sz
p2068
aV600337.ss
p2069
aV600479.ss
p2070
aV000863.sz
p2071
aV600179.ss
p2072
aV600292.ss
p2073
aV900924.ss
p2074
aV150075.sz
p2075
aV300294.sz
p2076
aV600738.ss
p2077
aV000618.sz
p2078
aV600785.ss
p2079
aV200488.sz
p2080
aV600654.ss
p2081
aV000995.sz
p2082
aV002194.sz
p2083
aV002172.sz
p2084
aV038011.sz
p2085
aV600814.ss
p2086
aV002064.sz
p2087
aV601117.ss
p2088
aV150047.sz
p2089
aV002576.sz
p2090
aV150034.sz
p2091
aV002564.sz
p2092
aV002293.sz
p2093
aV000043.sz
p2094
aV002441.sz
p2095
aV150114.sz
p2096
aV300046.sz
p2097
aV600616.ss
p2098
aV000893.sz
p2099
aV002434.sz
p2100
aV600205.ss
p2101
aV600493.ss
p2102
aV600284.ss
p2103
aV600141.ss
p2104
aV000839.sz
p2105
aV203031.ss
p2106
aV600270.ss
p2107
aV002089.sz
p2108
aV002142.sz
p2109
aV000731.sz
p2110
aV002429.sz
p2111
aV150079.sz
p2112
aV600895.ss
p2113
aV300290.sz
p2114
aV600806.ss
p2115
aV159901.sz
p2116
aV600113.ss
p2117
aV160505.sz
p2118
aV000792.sz
p2119
aV300218.sz
p2120
aV002435.sz
p2121
aV002719.sz
p2122
aV500005.ss
p2123
aV150044.sz
p2124
aV000047.sz
p2125
aV002345.sz
p2126
aV600316.ss
p2127
aV002206.sz
p2128
aV300286.sz
p2129
aV600243.ss
p2130
aV203050.ss
p2131
aV000056.sz
p2132
aV000417.sz
p2133
aV200512.sz
p2134
aV031005.sz
p2135
aV300255.sz
p2136
aV600419.ss
p2137
aV002123.sz
p2138
aV200625.sz
p2139
aV150152.sz
p2140
aV002546.sz
p2141
aV600604.ss
p2142
aV150121.sz
p2143
aV002260.sz
p2144
aV161813.sz
p2145
aV300234.sz
p2146
aV600033.ss
p2147
aV159915.sz
p2148
aV002148.sz
p2149
aV200045.sz
p2150
aV160616.sz
p2151
aV600048.ss
p2152
aV002618.sz
p2153
aV000301.sz
p2154
aV000935.sz
p2155
aV002063.sz
p2156
aV000529.sz
p2157
aV600296.ss
p2158
aV202001.ss
p2159
aV600567.ss
p2160
aV002341.sz
p2161
aV500009.ss
p2162
aV600247.ss
p2163
aV204002.ss
p2164
aV600549.ss
p2165
aV000810.sz
p2166
aV300371.sz
p2167
aV600991.ss
p2168
aV002328.sz
p2169
aV002266.sz
p2170
aV159933.sz
p2171
aV200024.sz
p2172
aV002313.sz
p2173
aV002619.sz
p2174
aV300282.sz
p2175
aV300238.sz
p2176
aV600051.ss
p2177
aV184698.sz
p2178
aV002051.sz
p2179
aV150008.sz
p2180
aV000038.sz
p2181
aV300131.sz
p2182
aV000151.sz
p2183
aV160615.sz
p2184
aV600973.ss
p2185
aV300036.sz
p2186
aV203042.ss
p2187
aV200992.sz
p2188
aV002319.sz
p2189
aV300307.sz
p2190
aV000660.sz
p2191
aV600163.ss
p2192
aV002292.sz
p2193
aV600393.ss
p2194
aV518800.ss
p2195
aV002459.sz
p2196
aV165508.sz
p2197
aV300058.sz
p2198
aV000566.sz
p2199
aV160131.sz
p2200
aV002686.sz
p2201
aV002469.sz
p2202
aV002601.sz
p2203
aV000568.sz
p2204
aV150120.sz
p2205
aV600056.ss
p2206
aV002055.sz
p2207
aV300027.sz
p2208
aV000515.sz
p2209
aV150030.sz
p2210
aV300124.sz
p2211
aV600513.ss
p2212
aV002321.sz
p2213
aV601003.ss
p2214
aV300246.sz
p2215
aV601199.ss
p2216
aV002158.sz
p2217
aV002415.sz
p2218
aV000911.sz
p2219
aV204014.ss
p2220
aV002087.sz
p2221
aV002398.sz
p2222
aV600696.ss
p2223
aV000686.sz
p2224
aV002498.sz
p2225
aV600248.ss
p2226
aV300054.sz
p2227
aV513500.ss
p2228
aV159908.sz
p2229
aV002354.sz
p2230
aV600808.ss
p2231
aV300303.sz
p2232
aV600686.ss
p2233
aV150096.sz
p2234
aV002664.sz
p2235
aV600756.ss
p2236
aV601877.ss
p2237
aV150113.sz
p2238
aV300061.sz
p2239
aV002451.sz
p2240
aV000903.sz
p2241
aV600521.ss
p2242
aV600201.ss
p2243
aV300003.sz
p2244
aV600350.ss
p2245
aV300229.sz
p2246
aV300030.sz
p2247
aV002380.sz
p2248
aV163407.sz
p2249
aV300028.sz
p2250
aV164814.sz
p2251
aV000672.sz
p2252
aV002671.sz
p2253
aV000712.sz
p2254
aV601958.ss
p2255
aV002470.sz
p2256
aV300245.sz
p2257
aV300320.sz
p2258
aV900915.ss
p2259
aV600571.ss
p2260
aV000609.sz
p2261
aV002578.sz
p2262
aV002433.sz
p2263
aV002621.sz
p2264
aV002358.sz
p2265
aV000009.sz
p2266
aV200013.sz
p2267
aV000681.sz
p2268
aV600630.ss
p2269
aV600866.ss
p2270
aV150117.sz
p2271
aV600769.ss
p2272
aV300166.sz
p2273
aV600525.ss
p2274
aV900943.ss
p2275
aV150085.sz
p2276
aV002138.sz
p2277
aV002164.sz
p2278
aV184721.sz
p2279
aV002516.sz
p2280
aV002675.sz
p2281
aV600195.ss
p2282
aV600985.ss
p2283
aV600019.ss
p2284
aV601633.ss
p2285
aV300232.sz
p2286
aV300042.sz
p2287
aV002067.sz
p2288
aV600555.ss
p2289
aV600748.ss
p2290
aV002108.sz
p2291
aV601727.ss
p2292
aV000537.sz
p2293
aV002001.sz
p2294
aV000629.sz
p2295
aV600070.ss
p2296
aV600168.ss
p2297
aV002648.sz
p2298
aV600969.ss
p2299
aV000977.sz
p2300
aV600097.ss
p2301
aV600346.ss
p2302
aV002286.sz
p2303
aV300277.sz
p2304
aV600221.ss
p2305
aV600545.ss
p2306
aV000916.sz
p2307
aV002634.sz
p2308
aV200613.sz
p2309
aV600367.ss
p2310
aV600967.ss
p2311
aV150081.sz
p2312
aV300279.sz
p2313
aV600518.ss
p2314
aV600103.ss
p2315
aV002570.sz
p2316
aV300332.sz
p2317
aV000510.sz
p2318
aV159926.sz
p2319
aV600497.ss
p2320
aV002410.sz
p2321
aV300170.sz
p2322
aV600891.ss
p2323
aV000547.sz
p2324
aV600480.ss
p2325
aV600172.ss
p2326
aV601008.ss
p2327
aV600066.ss
p2328
aV600637.ss
p2329
aV601118.ss
p2330
aV601628.ss
p2331
aV600551.ss
p2332
aV600854.ss
p2333
aV600628.ss
p2334
aV600698.ss
p2335
aV000550.sz
p2336
aV600449.ss
p2337
aV002031.sz
p2338
aV000720.sz
p2339
aV300338.sz
p2340
aV000769.sz
p2341
aV510150.ss
p2342
aV000572.sz
p2343
aV150118.sz
p2344
aV002504.sz
p2345
aV600771.ss
p2346
aV600106.ss
p2347
aV600646.ss
p2348
aV000599.sz
p2349
aV002689.sz
p2350
aV600052.ss
p2351
aV002595.sz
p2352
aV150026.sz
p2353
aV300023.sz
p2354
aV000511.sz
p2355
aV163801.sz
p2356
aV300136.sz
p2357
aV150151.sz
p2358
aV600517.ss
p2359
aV600995.ss
p2360
aV161706.sz
p2361
aV600731.ss
p2362
aV150124.sz
p2363
aV600706.ss
p2364
aV002198.sz
p2365
aV162411.sz
p2366
aV002150.sz
p2367
aV600789.ss
p2368
aV300174.sz
p2369
aV600035.ss
p2370
aV600266.ss
p2371
aV600850.ss
p2372
aV002500.sz
p2373
aV600797.ss
p2374
aV600211.ss
p2375
aV000835.sz
p2376
aV600847.ss
p2377
aV000796.sz
p2378
aV000836.sz
p2379
aV000653.sz
p2380
aV300155.sz
p2381
aV600707.ss
p2382
aV000533.sz
p2383
aV002097.sz
p2384
aV600074.ss
p2385
aV601988.ss
p2386
aV300114.sz
p2387
aV600380.ss
p2388
aV600237.ss
p2389
aV601231.ss
p2390
aV000666.sz
p2391
aV002185.sz
p2392
aV600397.ss
p2393
aV002591.sz
p2394
aV900912.ss
p2395
aV002298.sz
p2396
aV002554.sz
p2397
aV002450.sz
p2398
aV002485.sz
p2399
aV500056.ss
p2400
aV600282.ss
p2401
aV600751.ss
p2402
aV000155.sz
p2403
aV510630.ss
p2404
aV000630.sz
p2405
aV600258.ss
p2406
aV000022.sz
p2407
aV600598.ss
p2408
aV200168.sz
p2409
aV600269.ss
p2410
aV000636.sz
p2411
aV002231.sz
p2412
aV150171.sz
p2413
aV300162.sz
p2414
aV161117.sz
p2415
aV000401.sz
p2416
aV000956.sz
p2417
aV600869.ss
p2418
aV000996.sz
p2419
aV600326.ss
p2420
aV600596.ss
p2421
aV600415.ss
p2422
aV600775.ss
p2423
aV600219.ss
p2424
aV600403.ss
p2425
aV002519.sz
p2426
aV900916.ss
p2427
aV601601.ss
p2428
aV300159.sz
p2429
aV300125.sz
p2430
aV600225.ss
p2431
aV002481.sz
p2432
aV300349.sz
p2433
aV600650.ss
p2434
aV000869.sz
p2435
aV002611.sz
p2436
aV000851.sz
p2437
aV600298.ss
p2438
aV000822.sz
p2439
aV002456.sz
p2440
aV300263.sz
p2441
aV000728.sz
p2442
aV603008.ss
p2443
aV600793.ss
p2444
aV203053.ss
p2445
aV000931.sz
p2446
aV600059.ss
p2447
aV002325.sz
p2448
aV300310.sz
p2449
aV600360.ss
p2450
aV002474.sz
p2451
aV200596.sz
p2452
aV002403.sz
p2453
aV160611.sz
p2454
aV600091.ss
p2455
aV510260.ss
p2456
aV002697.sz
p2457
aV002416.sz
p2458
aV601012.ss
p2459
aV161210.sz
p2460
aV600727.ss
p2461
aV300050.sz
p2462
aV600819.ss
p2463
aV000930.sz
p2464
aV600712.ss
p2465
aV580025.ss
p2466
aV000046.sz
p2467
aV002245.sz
p2468
aV510650.ss
p2469
aV900928.ss
p2470
aV600021.ss
p2471
aV300219.sz
p2472
aV300367.sz
p2473
aV002439.sz
p2474
aV002100.sz
p2475
aV600102.ss
p2476
aV600461.ss
p2477
aV300184.sz
p2478
aV300241.sz
p2479
aV600130.ss
p2480
aV600584.ss
p2481
aV000898.sz
p2482
aV600849.ss
p2483
aV002218.sz
p2484
aV131800.sz
p2485
aV150057.sz
p2486
aV600112.ss
p2487
aV000678.sz
p2488
aV300033.sz
p2489
aV300139.sz
p2490
aV000915.sz
p2491
aV166902.sz
p2492
aV500015.ss
p2493
aV600716.ss
p2494
aV000885.sz
p2495
aV510160.ss
p2496
aV510440.ss
p2497
aV131901.sz
p2498
aV002625.sz
p2499
aV300153.sz
p2500
aV900919.ss
p2501
aV300213.sz
p2502
aV510230.ss
p2503
aV150061.sz
p2504
aV600399.ss
p2505
aV150167.sz
p2506
aV300074.sz
p2507
aV300149.sz
p2508
aV300202.sz
p2509
aV002103.sz
p2510
aV002099.sz
p2511
aV600262.ss
p2512
aV000703.sz
p2513
aV601669.ss
p2514
aV900950.ss
p2515
aV002160.sz
p2516
aV000831.sz
p2517
aV000788.sz
p2518
aV900947.ss
p2519
aV600039.ss
p2520
aV000761.sz
p2521
aV200041.sz
p2522
aV002062.sz
p2523
aV601318.ss
p2524
aV000423.sz
p2525
aV150139.sz
p2526
aV002396.sz
p2527
aV600300.ss
p2528
aV580022.ss
p2529
aV002615.sz
p2530
aV600742.ss
p2531
aV002722.sz
p2532
aV000422.sz
p2533
aV159931.sz
p2534
aV150149.sz
p2535
aV510310.ss
p2536
aV600153.ss
p2537
aV600701.ss
p2538
aV600963.ss
p2539
aV204182.ss
p2540
aV000739.sz
p2541
aV300196.sz
p2542
aV150095.sz
p2543
aV600877.ss
p2544
aV300268.sz
p2545
aV002278.sz
p2546
aV000881.sz
p2547
aV600961.ss
p2548
aV510180.ss
p2549
aV002573.sz
p2550
aV300313.sz
p2551
aV002392.sz
p2552
aV600338.ss
p2553
aV002223.sz
p2554
aV000932.sz
p2555
aV601607.ss
p2556
aV002364.sz
p2557
aV000543.sz
p2558
aV000058.sz
p2559
aV002035.sz
p2560
aV002073.sz
p2561
aV600062.ss
p2562
aV002272.sz
p2563
aV600458.ss
p2564
aV600322.ss
p2565
aV300326.sz
p2566
aV600017.ss
p2567
aV600215.ss
p2568
aV002135.sz
p2569
aV900930.ss
p2570
aV000966.sz
p2571
aV002565.sz
p2572
aV600456.ss
p2573
aV002699.sz
p2574
aV002296.sz
p2575
aV000766.sz
p2576
aV000978.sz
p2577
aV002149.sz
p2578
aV600843.ss
p2579
aV600735.ss
p2580
aV002362.sz
p2581
aV601866.ss
p2582
aV300041.sz
p2583
aV601398.ss
p2584
aV000563.sz
p2585
aV300084.sz
p2586
aV002059.sz
p2587
aV002533.sz
p2588
aV002013.sz
p2589
aV002255.sz
p2590
aV000003.sz
p2591
aV002047.sz
p2592
aV161811.sz
p2593
aV600345.ss
p2594
aV601965.ss
p2595
aV159924.sz
p2596
aV002339.sz
p2597
aV000736.sz
p2598
aV600114.ss
p2599
aV162607.sz
p2600
aV038017.sz
p2601
aV000657.sz
p2602
aV600189.ss
p2603
aV000040.sz
p2604
aV002549.sz
p2605
aV002104.sz
p2606
aV000783.sz
p2607
aV300128.sz
p2608
aV002384.sz
p2609
aV150132.sz
p2610
aV900949.ss
p2611
aV002637.sz
p2612
aV601099.ss
p2613
aV002462.sz
p2614
aV002119.sz
p2615
aV600575.ss
p2616
aV000800.sz
p2617
aV510410.ss
p2618
aV002308.sz
p2619
aV000600.sz
p2620
aV150071.sz
p2621
aV300356.sz
p2622
aV510050.ss
p2623
aV300035.sz
p2624
aV159928.sz
p2625
aV002669.sz
p2626
aV000732.sz
p2627
aV002237.sz
p2628
aV900926.ss
p2629
aV600357.ss
p2630
aV600592.ss
p2631
aV600159.ss
p2632
aV600191.ss
p2633
aV002076.sz
p2634
aV000787.sz
p2635
aV600635.ss
p2636
aV150084.sz
p2637
aV601599.ss
p2638
aV600185.ss
p2639
aV000677.sz
p2640
aV300110.sz
p2641
aV200429.sz
p2642
aV000817.sz
p2643
aV600583.ss
p2644
aV300106.sz
p2645
aV600879.ss
p2646
aV600240.ss
p2647
aV300198.sz
p2648
aV002174.sz
p2649
aV164105.sz
p2650
aV150045.sz
p2651
aV900904.ss
p2652
aV002691.sz
p2653
aV002261.sz
p2654
aV580026.ss
p2655
aV600663.ss
p2656
aV300319.sz
p2657
aV600765.ss
p2658
aV600834.ss
p2659
aV600293.ss
p2660
aV600083.ss
p2661
aV002018.sz
p2662
aV300013.sz
p2663
aV150145.sz
p2664
aV184689.sz
p2665
aV600537.ss
p2666
aV150148.sz
p2667
aV300073.sz
p2668
aV500011.ss
p2669
aV600448.ss
p2670
aV150091.sz
p2671
aV600815.ss
p2672
aV002589.sz
p2673
aV600354.ss
p2674
aV000156.sz
p2675
aV002643.sz
p2676
aV002524.sz
p2677
aV600077.ss
p2678
aV002617.sz
p2679
aV300275.sz
p2680
aV000530.sz
p2681
aV000415.sz
p2682
aV002542.sz
p2683
aV002265.sz
p2684
aV300342.sz
p2685
aV000970.sz
p2686
aV002131.sz
p2687
aV900934.ss
p2688
aV601101.ss
p2689
aV600580.ss
p2690
aV002448.sz
p2691
aV300272.sz
p2692
aV002184.sz
p2693
aV600728.ss
p2694
aV002192.sz
p2695
aV300132.sz
p2696
aV600123.ss
p2697
aV600783.ss
p2698
aV600252.ss
p2699
aV300011.sz
p2700
aV600533.ss
p2701
aV600372.ss
p2702
aV000620.sz
p2703
aV002647.sz
p2704
aV000705.sz
p2705
aV580016.ss
p2706
aV150037.sz
p2707
aV600506.ss
p2708
aV600444.ss
p2709
aV002656.sz
p2710
aV002217.sz
p2711
aV000762.sz
p2712
aV131910.sz
p2713
aV600746.ss
p2714
aV002562.sz
p2715
aV002359.sz
p2716
aV150099.sz
p2717
aV002374.sz
p2718
aV002404.sz
p2719
aV000950.sz
p2720
aV300206.sz
p2721
aV600438.ss
p2722
aV300045.sz
p2723
aV203032.ss
p2724
aV300208.sz
p2725
aV000522.sz
p2726
aV600812.ss
p2727
aV002580.sz
p2728
aV002501.sz
p2729
aV002227.sz
p2730
aV600510.ss
p2731
aV002329.sz
p2732
aV300099.sz
p2733
aV000709.sz
p2734
aV150033.sz
p2735
aV002409.sz
p2736
aV601567.ss
p2737
aV000405.sz
p2738
aV000429.sz
p2739
aV300071.sz
p2740
aV002280.sz
p2741
aV000610.sz
p2742
aV002566.sz
p2743
aV600674.ss
p2744
aV002477.sz
p2745
aV002684.sz
p2746
aV600755.ss
p2747
aV002714.sz
p2748
aV150110.sz
p2749
aV150065.sz
p2750
aV600990.ss
p2751
aV002312.sz
p2752
aV000752.sz
p2753
aV000659.sz
p2754
aV150082.sz
p2755
aV159932.sz
p2756
aV600157.ss
p2757
aV000999.sz
p2758
aV002638.sz
p2759
aV002023.sz
p2760
aV500038.ss
p2761
aV150013.sz
p2762
aV600452.ss
p2763
aV000632.sz
p2764
aV002060.sz
p2765
aV002002.sz
p2766
aV300317.sz
p2767
aV002558.sz
p2768
aV150088.sz
p2769
aV002366.sz
p2770
aV002466.sz
p2771
aV000029.sz
p2772
aV200054.sz
p2773
aV300284.sz
p2774
aV600670.ss
p2775
aV600682.ss
p2776
aV002452.sz
p2777
aV600667.ss
p2778
aV600127.ss
p2779
aV202003.ss
p2780
aV600502.ss
p2781
aV203017.ss
p2782
aV163824.sz
p2783
aV002425.sz
p2784
aV002315.sz
p2785
aV600651.ss
p2786
aV200770.sz
p2787
aV200521.sz
p2788
aV600828.ss
p2789
aV002005.sz
p2790
aV000425.sz
p2791
aV160915.sz
p2792
aV500001.ss
p2793
aV600874.ss
p2794
aV002453.sz
p2795
aV002086.sz
p2796
aV600697.ss
p2797
aV150102.sz
p2798
aV600508.ss
p2799
aV300337.sz
p2800
aV600330.ss
p2801
aV600229.ss
p2802
aV000030.sz
p2803
aV511990.ss
p2804
aV600391.ss
p2805
aV600433.ss
p2806
aV300353.sz
p2807
aV000016.sz
p2808
aV002537.sz
p2809
aV601179.ss
p2810
aV900922.ss
p2811
aV300363.sz
p2812
aV000516.sz
p2813
aV200541.sz
p2814
aV000504.sz
p2815
aV300212.sz
p2816
aV002072.sz
p2817
aV600055.ss
p2818
aV002112.sz
p2819
aV000590.sz
p2820
aV510420.ss
p2821
aV002710.sz
p2822
aV000899.sz
p2823
aV000409.sz
p2824
aV203040.ss
p2825
aV600371.ss
p2826
aV600559.ss
p2827
aV002447.sz
p2828
aV600278.ss
p2829
aV600690.ss
p2830
aV510060.ss
p2831
aV002609.sz
p2832
aV600610.ss
p2833
aV002081.sz
p2834
aV000008.sz
p2835
aV002507.sz
p2836
aV300280.sz
p2837
aV131900.sz
p2838
aV300093.sz
p2839
aV000807.sz
p2840
aV002240.sz
p2841
aV500018.ss
p2842
aV510510.ss
p2843
aV000926.sz
p2844
aV600272.ss
p2845
aV000012.sz
p2846
aV600816.ss
p2847
aV000514.sz
p2848
aV002170.sz
p2849
aV600181.ss
p2850
aV002297.sz
p2851
aV002337.sz
p2852
aV600087.ss
p2853
aV600639.ss
p2854
aV000411.sz
p2855
aV600149.ss
p2856
aV165509.sz
p2857
aV600830.ss
p2858
aV150031.sz
p2859
aV000526.sz
p2860
aV000628.sz
p2861
aV000682.sz
p2862
aV002540.sz
p2863
aV600568.ss
p2864
aV002473.sz
p2865
aV000588.sz
p2866
aV600209.ss
p2867
aV601168.ss
p2868
aV600998.ss
p2869
aV600089.ss
p2870
aV600669.ss
p2871
aV161903.sz
p2872
aV000586.sz
p2873
aV600608.ss
p2874
aV163112.sz
p2875
aV300102.sz
p2876
aV600579.ss
p2877
aV002347.sz
p2878
aV600892.ss
p2879
aV201004.ss
p2880
aV510520.ss
p2881
aV038014.sz
p2882
aV150041.sz
p2883
aV002486.sz
p2884
aV203020.ss
p2885
aV002525.sz
p2886
aV900911.ss
p2887
aV002350.sz
p2888
aV601666.ss
p2889
aV161213.sz
p2890
aV002120.sz
p2891
aV600222.ss
p2892
aV300350.sz
p2893
aV002169.sz
p2894
aV002372.sz
p2895
aV600826.ss
p2896
aV600657.ss
p2897
aV200017.sz
p2898
aV002241.sz
p2899
aV601555.ss
p2900
aV000503.sz
p2901
aV601377.ss
p2902
aV300141.sz
p2903
aV300007.sz
p2904
aV580012.ss
p2905
aV002539.sz
p2906
aV002311.sz
p2907
aV300029.sz
p2908
aV002652.sz
p2909
aV002581.sz
p2910
aV600175.ss
p2911
aV300318.sz
p2912
aV600108.ss
p2913
aV000778.sz
p2914
aV600863.ss
p2915
aV300223.sz
p2916
aV201000.ss
p2917
aV002173.sz
p2918
aV002645.sz
p2919
aV600557.ss
p2920
aV300368.sz
p2921
aV600226.ss
p2922
aV002556.sz
p2923
aV184693.sz
p2924
aV002455.sz
p2925
aV002607.sz
p2926
aV200039.sz
p2927
aV150128.sz
p2928
aV002196.sz
p2929
aV002053.sz
p2930
aV159912.sz
p2931
aV600846.ss
p2932
aV600787.ss
p2933
aV002043.sz
p2934
aV002006.sz
p2935
aV000912.sz
p2936
aV002333.sz
p2937
aV600649.ss
p2938
aV000827.sz
p2939
aV002418.sz
p2940
aV600363.ss
p2941
aV600256.ss
p2942
aV600171.ss
p2943
aV162307.sz
p2944
aV002509.sz
p2945
aV150122.sz
p2946
aV600379.ss
p2947
aV002490.sz
p2948
aV002574.sz
p2949
aV600503.ss
p2950
aV600246.ss
p2951
aV300214.sz
p2952
aV000756.sz
p2953
aV600396.ss
p2954
aV000811.sz
p2955
aV600694.ss
p2956
aV002027.sz
p2957
aV002085.sz
p2958
aV002622.sz
p2959
aV600867.ss
p2960
aV601519.ss
p2961
aV000933.sz
p2962
aV160106.sz
p2963
aV150043.sz
p2964
aV600207.ss
p2965
aV601011.ss
p2966
aV600587.ss
p2967
aV002201.sz
p2968
aV184728.sz
p2969
aV150092.sz
p2970
aV002248.sz
p2971
aV600301.ss
p2972
aV150006.sz
p2973
aV000518.sz
p2974
aV000508.sz
p2975
aV600572.ss
p2976
aV002513.sz
p2977
aV131803.sz
p2978
aV601636.ss
p2979
aV300354.sz
p2980
aV000507.sz
p2981
aV002363.sz
p2982
aV000958.sz
p2983
aV600745.ss
p2984
aV600238.ss
p2985
aV002681.sz
p2986
aV002421.sz
p2987
aV031007.sz
p2988
aV600861.ss
p2989
aV000809.sz
p2990
aV601010.ss
p2991
aV600872.ss
p2992
aV300358.sz
p2993
aV002626.sz
p2994
aV300077.sz
p2995
aV300168.sz
p2996
aV600606.ss
p2997
aV002242.sz
p2998
aV000576.sz
p2999
aV600146.ss
p3000
aV600031.ss
p3001
aV000598.sz
p3002
aV150172.sz
p3003
aV600523.ss
p3004
aV203018.ss
p3005
aV002599.sz
p3006
aV600388.ss
p3007
aV002663.sz
p3008
aV600078.ss
p3009
aV600516.ss
p3010
aV601899.ss
p3011
aV000034.sz
p3012
aV200160.sz
p3013
aV002646.sz
p3014
aV600890.ss
p3015
aV002603.sz
p3016
aV002442.sz
p3017
aV002264.sz
p3018
aV002300.sz
p3019
aV601111.ss
p3020
aV601088.ss
p3021
aV600053.ss
p3022
aV000594.sz
p3023
aV600971.ss
p3024
aV601328.ss
p3025
aV601336.ss
p3026
aV600713.ss
p3027
aV600688.ss
p3028
aV002701.sz
p3029
aV002078.sz
p3030
aV000715.sz
p3031
aV600887.ss
p3032
aV000829.sz
p3033
aV150106.sz
p3034
aV000581.sz
p3035
aV002290.sz
p3036
aV000662.sz
p3037
aV000690.sz
p3038
aV300289.sz
p3039
aV600614.ss
p3040
aV002136.sz
p3041
aV603005.ss
p3042
aV000564.sz
p3043
aV203052.ss
p3044
aV002140.sz
p3045
aV900938.ss
p3046
aV600286.ss
p3047
aV000159.sz
p3048
aV000859.sz
p3049
aV000777.sz
p3050
aV300292.sz
p3051
aV600268.ss
p3052
aV600777.ss
p3053
aV160212.sz
p3054
aV000402.sz
p3055
aV000004.sz
p3056
aV002188.sz
p3057
aV002161.sz
p3058
aV601299.ss
p3059
aV150157.sz
p3060
aV600804.ss
p3061
aV900946.ss
p3062
aV601800.ss
p3063
aV300372.sz
p3064
aV300301.sz
p3065
aV000925.sz
p3066
aV600883.ss
p3067
aV150067.sz
p3068
aV002408.sz
p3069
aV600602.ss
p3070
aV200025.sz
p3071
aV300172.sz
p3072
aV600490.ss
p3073
aV000560.sz
p3074
aV600425.ss
p3075
aV600487.ss
p3076
aV600754.ss
p3077
aV000582.sz
p3078
aV600203.ss
p3079
aV002139.sz
p3080
aV150168.sz
p3081
aV002146.sz
p3082
aV000837.sz
p3083
aV600276.ss
p3084
aV300249.sz
p3085
aV002279.sz
p3086
aV150025.sz
p3087
aV600795.ss
p3088
aV000670.sz
p3089
aV159001.sz
p3090
aV600073.ss
p3091
aV002343.sz
p3092
aV600306.ss
p3093
aV002658.sz
p3094
aV000534.sz
p3095
aV300117.sz
p3096
aV600529.ss
p3097
aV600822.ss
p3098
aV600576.ss
p3099
aV600463.ss
p3100
aV002552.sz
p3101
aV580021.ss
p3102
aV002205.sz
p3103
aV600741.ss
p3104
aV600833.ss
p3105
aV159916.sz
p3106
aV002677.sz
p3107
aV600659.ss
p3108
aV900941.ss
p3109
aV000088.sz
p3110
aV510020.ss
p3111
aV300097.sz
p3112
aV150068.sz
p3113
aV002166.sz
p3114
aV159918.sz
p3115
aV300227.sz
p3116
aV600116.ss
p3117
aV600302.ss
p3118
aV002262.sz
p3119
aV300113.sz
p3120
aV000421.sz
p3121
aV300230.sz
p3122
aV600290.ss
p3123
aV300221.sz
p3124
aV000669.sz
p3125
aV150108.sz
p3126
aV000861.sz
p3127
aV300080.sz
p3128
aV300250.sz
p3129
aV002346.sz
p3130
aV600837.ss
p3131
aV300135.sz
p3132
aV900933.ss
p3133
aV000020.sz
p3134
aV510170.ss
p3135
aV600401.ss
p3136
aV002093.sz
p3137
aV002057.sz
p3138
aV300123.sz
p3139
aV002640.sz
p3140
aV000680.sz
p3141
aV002183.sz
p3142
aV166007.sz
p3143
aV600160.ss
p3144
aV002412.sz
p3145
aV000765.sz
p3146
aV600624.ss
p3147
aV600749.ss
p3148
aV150138.sz
p3149
aV601700.ss
p3150
aV600455.ss
p3151
aV150038.sz
p3152
aV203044.ss
p3153
aV601788.ss
p3154
a.